
Rotate_point.elf:     file format elf32-littlenios2
Rotate_point.elf
architecture: nios2, flags 0x00000112:
EXEC_P, HAS_SYMS, D_PAGED
start address 0x008001b4

Program Header:
    LOAD off    0x00001000 vaddr 0x00800000 paddr 0x00800000 align 2**12
         filesz 0x00000020 memsz 0x00000020 flags r-x
    LOAD off    0x00001020 vaddr 0x00800020 paddr 0x00800020 align 2**12
         filesz 0x0000c3dc memsz 0x0000c3dc flags r-x
    LOAD off    0x0000d3fc vaddr 0x0080c3fc paddr 0x0080e930 align 2**12
         filesz 0x00002534 memsz 0x00002534 flags rw-
    LOAD off    0x0000ee64 vaddr 0x00810e64 paddr 0x00810e64 align 2**12
         filesz 0x00000000 memsz 0x000002e0 flags rw-

Sections:
Idx Name          Size      VMA       LMA       File off  Algn
  0 .entry        00000020  00800000  00800000  00001000  2**5
                  CONTENTS, ALLOC, LOAD, READONLY, CODE
  1 .exceptions   00000194  00800020  00800020  00001020  2**2
                  CONTENTS, ALLOC, LOAD, READONLY, CODE
  2 .text         0000c120  008001b4  008001b4  000011b4  2**2
                  CONTENTS, ALLOC, LOAD, READONLY, CODE
  3 .rodata       00000128  0080c2d4  0080c2d4  0000d2d4  2**2
                  CONTENTS, ALLOC, LOAD, READONLY, DATA
  4 .rwdata       00002534  0080c3fc  0080e930  0000d3fc  2**2
                  CONTENTS, ALLOC, LOAD, DATA, SMALL_DATA
  5 .bss          000002e0  00810e64  00810e64  0000ee64  2**2
                  ALLOC, SMALL_DATA
  6 .comment      00000bf4  00000000  00000000  0000f930  2**0
                  CONTENTS, READONLY
  7 .debug_aranges 00000ab8  00000000  00000000  00010528  2**3
                  CONTENTS, READONLY, DEBUGGING
  8 .debug_pubnames 00001679  00000000  00000000  00010fe0  2**0
                  CONTENTS, READONLY, DEBUGGING
  9 .debug_info   00021fbc  00000000  00000000  00012659  2**0
                  CONTENTS, READONLY, DEBUGGING
 10 .debug_abbrev 00005fbf  00000000  00000000  00034615  2**0
                  CONTENTS, READONLY, DEBUGGING
 11 .debug_line   0001203d  00000000  00000000  0003a5d4  2**0
                  CONTENTS, READONLY, DEBUGGING
 12 .debug_frame  00001ac8  00000000  00000000  0004c614  2**2
                  CONTENTS, READONLY, DEBUGGING
 13 .debug_str    00001bbd  00000000  00000000  0004e0dc  2**0
                  CONTENTS, READONLY, DEBUGGING
 14 .debug_loc    00004f07  00000000  00000000  0004fc99  2**0
                  CONTENTS, READONLY, DEBUGGING
 15 .debug_alt_sim_info 00000060  00000000  00000000  00054ba0  2**2
                  CONTENTS, READONLY, DEBUGGING
 16 .debug_ranges 000002d8  00000000  00000000  00054c00  2**3
                  CONTENTS, READONLY, DEBUGGING
 17 .thread_model 00000003  00000000  00000000  00058314  2**0
                  CONTENTS, READONLY
 18 .cpu          00000003  00000000  00000000  00058317  2**0
                  CONTENTS, READONLY
 19 .simulation_enabled 00000001  00000000  00000000  0005831a  2**0
                  CONTENTS, READONLY
 20 .sysid_hash   00000004  00000000  00000000  0005831b  2**0
                  CONTENTS, READONLY
 21 .sysid_base   00000004  00000000  00000000  0005831f  2**0
                  CONTENTS, READONLY
 22 .sysid_time   00000004  00000000  00000000  00058323  2**0
                  CONTENTS, READONLY
 23 .stderr_dev   00000009  00000000  00000000  00058327  2**0
                  CONTENTS, READONLY
 24 .stdin_dev    00000009  00000000  00000000  00058330  2**0
                  CONTENTS, READONLY
 25 .stdout_dev   00000009  00000000  00000000  00058339  2**0
                  CONTENTS, READONLY
 26 .sopc_system_name 0000000c  00000000  00000000  00058342  2**0
                  CONTENTS, READONLY
 27 .quartus_project_dir 00000037  00000000  00000000  0005834e  2**0
                  CONTENTS, READONLY
 28 .jdi          00003ddc  00000000  00000000  00058385  2**0
                  CONTENTS, READONLY
SYMBOL TABLE:
00800000 l    d  .entry	00000000 .entry
00800020 l    d  .exceptions	00000000 .exceptions
008001b4 l    d  .text	00000000 .text
0080c2d4 l    d  .rodata	00000000 .rodata
0080c3fc l    d  .rwdata	00000000 .rwdata
00810e64 l    d  .bss	00000000 .bss
00000000 l    d  .comment	00000000 .comment
00000000 l    d  .debug_aranges	00000000 .debug_aranges
00000000 l    d  .debug_pubnames	00000000 .debug_pubnames
00000000 l    d  .debug_info	00000000 .debug_info
00000000 l    d  .debug_abbrev	00000000 .debug_abbrev
00000000 l    d  .debug_line	00000000 .debug_line
00000000 l    d  .debug_frame	00000000 .debug_frame
00000000 l    d  .debug_str	00000000 .debug_str
00000000 l    d  .debug_loc	00000000 .debug_loc
00000000 l    d  .debug_alt_sim_info	00000000 .debug_alt_sim_info
00000000 l    d  .debug_ranges	00000000 .debug_ranges
008001fc l       .text	00000000 alt_after_alt_main
00000000 l    df *ABS*	00000000 alt_irq_handler.c
00000000 l    df *ABS*	00000000 simple_graphics.c
00000000 l    df *ABS*	00000000 hello_world.c
0080cdf0 l     O .rwdata	0000000c cube_side_color.3174
00000000 l    df *ABS*	00000000 lib2-divmod.c
00803fc4 l     F .text	0000007c udivmodsi4
00000000 l    df *ABS*	00000000 exit.c
00000000 l    df *ABS*	00000000 impure.c
0080cdfc l     O .rwdata	00000400 impure_data
00000000 l    df *ABS*	00000000 malloc.c
00000000 l    df *ABS*	00000000 mallocr.c
00000000 l    df *ABS*	00000000 memcpy.c
00000000 l    df *ABS*	00000000 puts.c
00000000 l    df *ABS*	00000000 sbrkr.c
00000000 l    df *ABS*	00000000 strcpy.c
00000000 l    df *ABS*	00000000 strlen.c
00000000 l    df *ABS*	00000000 __call_atexit.c
00804b74 l     F .text	00000004 register_fini
00000000 l    df *ABS*	00000000 mallocr.c
00000000 l    df *ABS*	00000000 fvwrite.c
00000000 l    df *ABS*	00000000 int_errno.c
00000000 l    df *ABS*	00000000 memchr.c
00000000 l    df *ABS*	00000000 memmove.c
00000000 l    df *ABS*	00000000 mallocr.c
00000000 l    df *ABS*	00000000 wsetup.c
00000000 l    df *ABS*	00000000 fflush.c
00000000 l    df *ABS*	00000000 findfp.c
0080616c l     F .text	00000058 std
00806278 l     F .text	00000008 __fp_lock
00806280 l     F .text	00000008 __fp_unlock
00000000 l    df *ABS*	00000000 fwalk.c
00000000 l    df *ABS*	00000000 makebuf.c
00000000 l    df *ABS*	00000000 memset.c
00000000 l    df *ABS*	00000000 stdio.c
00000000 l    df *ABS*	00000000 writer.c
00000000 l    df *ABS*	00000000 closer.c
00000000 l    df *ABS*	00000000 fclose.c
00000000 l    df *ABS*	00000000 fstatr.c
00000000 l    df *ABS*	00000000 isattyr.c
00000000 l    df *ABS*	00000000 lseekr.c
00000000 l    df *ABS*	00000000 readr.c
00000000 l    df *ABS*	00000000 alt_close.c
00806e08 l     F .text	00000060 alt_get_errno
00000000 l    df *ABS*	00000000 alt_dev.c
00806e68 l     F .text	0000002c alt_dev_null_write
00000000 l    df *ABS*	00000000 alt_errno.c
00000000 l    df *ABS*	00000000 alt_exit.c
00806e94 l     F .text	00000040 alt_sim_halt
00000000 l    df *ABS*	00000000 alt_fstat.c
00806fc8 l     F .text	00000060 alt_get_errno
00000000 l    df *ABS*	00000000 alt_isatty.c
008070e8 l     F .text	00000060 alt_get_errno
00000000 l    df *ABS*	00000000 alt_load.c
008071c8 l     F .text	0000006c alt_load_section
00000000 l    df *ABS*	00000000 alt_lseek.c
00807324 l     F .text	00000060 alt_get_errno
00000000 l    df *ABS*	00000000 alt_main.c
00000000 l    df *ABS*	00000000 alt_malloc_lock.c
00000000 l    df *ABS*	00000000 alt_read.c
00807550 l     F .text	00000060 alt_get_errno
00000000 l    df *ABS*	00000000 alt_release_fd.c
00000000 l    df *ABS*	00000000 alt_sbrk.c
0080e910 l     O .rwdata	00000004 heap_end
00000000 l    df *ABS*	00000000 alt_tick.c
00000000 l    df *ABS*	00000000 alt_write.c
00807990 l     F .text	00000060 alt_get_errno
00000000 l    df *ABS*	00000000 vga_controller.c
00807a2c l     F .text	00000034 vga_device_register
00000000 l    df *ABS*	00000000 alt_sys_init.c
0080d7ac l     O .rwdata	000000d8 ext_flash
0080d884 l     O .rwdata	00001060 jtag_uart
00807ea8 l     F .text	00000038 alt_dev_reg
00000000 l    df *ABS*	00000000 altera_avalon_cfi_flash.c
00807f7c l     F .text	00000038 alt_flash_device_register
00000000 l    df *ABS*	00000000 altera_avalon_cfi_flash_table.c
00808d6c l     F .text	0000007c alt_read_16bit_query_entry
00000000 l    df *ABS*	00000000 altera_avalon_jtag_uart_fd.c
00000000 l    df *ABS*	00000000 altera_avalon_jtag_uart_init.c
00809df8 l     F .text	0000022c altera_avalon_jtag_uart_irq
0080a024 l     F .text	000000b0 altera_avalon_jtag_uart_timeout
00000000 l    df *ABS*	00000000 altera_avalon_jtag_uart_ioctl.c
00000000 l    df *ABS*	00000000 altera_avalon_jtag_uart_read.c
00000000 l    df *ABS*	00000000 altera_avalon_jtag_uart_write.c
00000000 l    df *ABS*	00000000 altera_avalon_timer_sc.c
0080a6a0 l     F .text	00000070 alt_avalon_timer_sc_irq
00000000 l    df *ABS*	00000000 alt_alarm_start.c
00000000 l    df *ABS*	00000000 alt_dcache_flush.c
00000000 l    df *ABS*	00000000 alt_dcache_flush_all.c
00000000 l    df *ABS*	00000000 alt_dev_llist_insert.c
0080aa64 l     F .text	00000060 alt_get_errno
00000000 l    df *ABS*	00000000 alt_do_ctors.c
00000000 l    df *ABS*	00000000 alt_do_dtors.c
00000000 l    df *ABS*	00000000 alt_find_dev.c
00000000 l    df *ABS*	00000000 alt_flash_dev.c
00000000 l    df *ABS*	00000000 alt_icache_flush_all.c
00000000 l    df *ABS*	00000000 alt_iic.c
00000000 l    df *ABS*	00000000 alt_iic_isr_register.c
00000000 l    df *ABS*	00000000 alt_io_redirect.c
0080afec l     F .text	000000c4 alt_open_fd
00000000 l    df *ABS*	00000000 alt_irq_vars.c
00000000 l    df *ABS*	00000000 alt_open.c
0080b128 l     F .text	000000dc alt_file_locked
0080b38c l     F .text	00000060 alt_get_errno
00000000 l    df *ABS*	00000000 alt_uncached_malloc.c
00000000 l    df *ABS*	00000000 altera_nios2_irq.c
00000000 l    df *ABS*	00000000 altera_avalon_cfi_flash_amd.c
0080b814 l     F .text	000000bc alt_write_word_amd
0080b6f0 l     F .text	00000124 alt_wait_for_command_to_complete_amd
00000000 l    df *ABS*	00000000 altera_avalon_cfi_flash_intel.c
0080bac8 l     F .text	0000018c alt_unlock_block_intel
0080bc54 l     F .text	000000dc alt_write_word_intel
00000000 l    df *ABS*	00000000 alt_find_file.c
00000000 l    df *ABS*	00000000 alt_get_fd.c
00000000 l    df *ABS*	00000000 alt_icache_flush.c
00000000 l    df *ABS*	00000000 alt_usleep.c
00000000 l    df *ABS*	00000000 alt_busy_sleep.c
00000000 l    df *ABS*	00000000 atexit.c
00000000 l    df *ABS*	00000000 memcmp.c
00000000 l    df *ABS*	00000000 __atexit.c
00801098 g     F .text	000002d8 vid_draw_horiz_line
00806bac g     F .text	00000070 _isatty_r
00807384 g     F .text	0000006c alt_main
00804a74 g     F .text	0000008c strcpy
00804950 g     F .text	000000a0 _puts_r
0080882c g     F .text	00000048 alt_read_query_entry_32bit
00810eb4 g     O .bss	00000100 alt_irq
00806c1c g     F .text	00000078 _lseek_r
00807fb4 g     F .text	000002c0 alt_flash_cfi_write
0080145c g     F .text	00000068 vid_color_convert16_24
0080e930 g       *ABS*	00000000 __flash_rwdata_start
00811144 g       *ABS*	00000000 __alt_heap_start
00807d08 g     F .text	0000008c vga_flip_frame_buffers
01800000 g       *ABS*	00000000 __alt_mem_sram
008067e8 g     F .text	00000068 __sseek
008061d4 g     F .text	000000a4 __sinit
008062d4 g     F .text	00000068 __sfmoreglue
00807410 g     F .text	00000020 __malloc_unlock
00800a2c g     F .text	0000013c vid_draw_box
00807abc g     F .text	0000024c vga_init_no_interrupt
008056f8 g     F .text	000000e0 memmove
008062c4 g     F .text	00000010 _cleanup
0080c3fc g     O .rwdata	00000415 cour10_font_array
00807a60 g     F .text	0000003c alt_vga_open_dev
0080c814 g     O .rwdata	00000024 cube_tris
008007fc g     F .text	0000011c vid_move_block
00000000  w      *UND*	00000000 __errno
008089b8 g     F .text	00000048 alt_write_flash_command_32bit_device_16bit_mode
00800000 g     F .entry	0000001c __reset
00800020 g       *ABS*	00000000 __flash_exceptions_start
00806b38 g     F .text	00000074 _fstat_r
008084d0 g     F .text	000002d8 alt_flash_program_block
00810e70 g     O .bss	00000004 errno
00810e78 g     O .bss	00000004 alt_argv
008168e4 g       *ABS*	00000000 _gp
0080bf98 g     F .text	00000030 usleep
0080b3ec g     F .text	00000064 alt_uncached_malloc
0080d62c g     O .rwdata	00000180 alt_fd_list
008038d8 g     F .text	00000158 resize_cube
0080ab8c g     F .text	00000094 alt_find_dev
008048b0 g     F .text	000000a0 memcpy
008062b8 g     F .text	0000000c _cleanup_r
0080b0b0 g     F .text	00000078 alt_io_redirect
0080c2d4 g       *ABS*	00000000 __DTOR_END__
00802f14 g     F .text	00000074 int_cos
008049f0 g     F .text	00000014 puts
0080b450 g     F .text	00000020 altera_nios2_irq_init
008002f8 g     F .text	0000014c vid_scroll_string_init
0080a23c g     F .text	00000224 altera_avalon_jtag_uart_read
0080415c g     F .text	00000014 malloc
00804100 g     F .text	00000008 __udivsi3
00807028 g     F .text	000000c0 isatty
00803a30 g     F .text	00000464 run_rotate
0080bf08 g     F .text	00000090 alt_icache_flush
00810e64 g     O .bss	00000004 __malloc_top_pad
00805160 g     F .text	0000049c __sfvwrite_r
00804a04 g     F .text	00000070 _sbrk_r
0080b8d0 g     F .text	00000084 alt_program_intel
00806c94 g     F .text	00000078 _read_r
0080a8f4 g     F .text	00000078 alt_dcache_flush
00802ac4 g     F .text	000003dc rotate_point
0080e908 g     O .rwdata	00000004 alt_max_fd
008087a8 g     F .text	00000040 alt_read_query_entry_8bit
00806a14 g     F .text	00000110 _fclose_r
0080b954 g     F .text	00000174 alt_erase_block_intel
00806138 g     F .text	00000034 fflush
00810e68 g     O .bss	00000004 __malloc_max_sbrked_mem
00807234 g     F .text	000000f0 lseek
0080e8ec g     O .rwdata	00000004 _global_impure_ptr
008019fc g     F .text	0000015c vid_draw_circle
008057d8 g     F .text	00000628 _realloc_r
00811144 g       *ABS*	00000000 __bss_end
0080aef4 g     F .text	000000f8 alt_iic_isr_register
00807764 g     F .text	0000010c alt_tick
00801780 g     F .text	0000027c vid_draw_sloped_line
008062a0 g     F .text	00000018 __fp_lock_all
0080aeac g     F .text	00000048 alt_ic_irq_enabled
008076cc g     F .text	00000098 alt_alarm_stop
00810e88 g     O .bss	00000004 alt_irq_active
008000ec g     F .exceptions	000000c8 alt_irq_handler
0080d604 g     O .rwdata	00000028 alt_dev_null
00808cc0 g     F .text	000000ac alt_set_flash_algorithm_func
00801b58 g     F .text	000004bc vid_circle_points
00803030 g     F .text	00000714 draw_filled_cube
00803e94 g     F .text	00000130 project
0080a96c g     F .text	00000044 alt_dcache_flush_all
00803744 g     F .text	00000194 draw_cube_skeleton
00808874 g     F .text	0000003c alt_write_flash_command_8bit_device_8bit_mode
0080e930 g       *ABS*	00000000 __ram_rwdata_end
0080248c g     F .text	00000348 vid_draw_triangle
0080e900 g     O .rwdata	00000008 alt_dev_list
00807870 g     F .text	00000120 write
008028b0 g     F .text	0000012c CropImage16
0080c3fc g       *ABS*	00000000 __ram_rodata_end
00806ef4 g     F .text	000000d4 fstat
00800444 g     F .text	000003b8 vid_scroll_string
00809b14 g     F .text	000000dc alt_check_primary_table
00804108 g     F .text	00000008 __umodsi3
00808304 g     F .text	00000068 alt_flash_cfi_read
00808a48 g     F .text	00000034 alt_write_native_8bit
008027d4 g     F .text	000000dc CopyImage16
00811144 g       *ABS*	00000000 end
00802a4c g     F .text	00000078 rotate_point_deg
008088b0 g     F .text	0000007c alt_write_flash_command_16bit_device_8bit_mode
00808de8 g     F .text	00000580 alt_read_cfi_table
00809d38 g     F .text	000000c0 altera_avalon_jtag_uart_init
00800b68 g     F .text	000000e8 vid_print_char
0080c2d0 g       *ABS*	00000000 __CTOR_LIST__
01000000 g       *ABS*	00000000 __alt_stack_pointer
0080a710 g     F .text	00000090 alt_avalon_timer_sc_init
0080a460 g     F .text	00000240 altera_avalon_jtag_uart_write
00802068 g     F .text	00000054 min3
00800200 g     F .text	000000bc vid_draw_line
00807ee0 g     F .text	0000009c alt_flash_cfi_init
008061c4 g     F .text	00000004 __sfp_lock_acquire
008055fc g     F .text	000000fc memchr
00804e4c g     F .text	00000314 _free_r
00804b78 g     F .text	000001a8 __call_exitprocs
0080e8f4 g     O .rwdata	00000004 __malloc_sbrk_base
008001b4 g     F .text	0000004c _start
00810e80 g     O .bss	00000004 _alt_tick_rate
00810e84 g     O .bss	00000004 _alt_nticks
00802120 g     F .text	0000010c vid_put_pixel_in_span_map
00807430 g     F .text	00000120 read
00807e40 g     F .text	00000068 alt_sys_init
0080c19c g     F .text	00000134 __register_exitproc
008087e8 g     F .text	00000044 alt_read_query_entry_16bit
008079f0 g     F .text	0000003c vga_dev_init
00800e28 g     F .text	00000270 vid_paint_block
0080a0d4 g     F .text	00000074 altera_avalon_jtag_uart_close
0080c3fc g       *ABS*	00000000 __ram_rwdata_start
0080c2d4 g       *ABS*	00000000 __ram_rodata_start
00810e8c g     O .bss	00000028 __malloc_current_mallinfo
00808ae0 g     F .text	000001e0 alt_set_flash_width_func
008013bc g     F .text	000000a0 vid_color_convert24_16
00809bf0 g     F .text	00000058 altera_avalon_jtag_uart_read_fd
0080be50 g     F .text	000000b8 alt_get_fd
0080bfc8 g     F .text	0000014c alt_busy_sleep
008069a4 g     F .text	00000070 _close_r
0080b4d8 g     F .text	00000218 alt_erase_block_amd
00802ea0 g     F .text	00000074 int_sin
0080c128 g     F .text	00000074 memcmp
00809ca0 g     F .text	00000048 altera_avalon_jtag_uart_close_fd
00811144 g       *ABS*	00000000 __alt_stack_base
00809ce8 g     F .text	00000050 altera_avalon_jtag_uart_ioctl_fd
00805e00 g     F .text	0000013c __swsetup_r
00809368 g     F .text	000007ac alt_read_cfi_width
0080633c g     F .text	000000f0 __sfp
0080d1fc g     O .rwdata	00000408 __malloc_av_
008061d0 g     F .text	00000004 __sinit_lock_release
008068cc g     F .text	00000060 __sread
0080bd30 g     F .text	00000120 alt_find_file
0080a9b0 g     F .text	000000b4 alt_dev_llist_insert
008073f0 g     F .text	00000020 __malloc_lock
008014c4 g     F .text	000002bc vid_copy_line_to_frame_buffer
00807610 g     F .text	000000bc sbrk
00805f3c g     F .text	000001fc _fflush_r
0080e924 g     O .rwdata	00000008 alt_flash_dev_list
00808974 g     F .text	00000044 alt_write_flash_command_16bit_device_16bit_mode
00810e64 g       *ABS*	00000000 __bss_start
00806748 g     F .text	00000098 memset
008029dc g     F .text	00000070 main
00810e7c g     O .bss	00000004 alt_envp
00810e6c g     O .bss	00000004 __malloc_max_total_mem
00809c48 g     F .text	00000058 altera_avalon_jtag_uart_write_fd
0080cb20 g     O .rwdata	000002d0 int_cos_array
008067e0 g     F .text	00000008 __sclose
01000000 g       *ABS*	00000000 __alt_heap_limit
00806b24 g     F .text	00000014 fclose
0080e8e4 g     O .rwdata	00000004 cour10_font
00810fb4 g     O .bss	00000190 _atexit0
00804170 g     F .text	00000740 _malloc_r
0080e90c g     O .rwdata	00000004 alt_errno
00808a00 g     F .text	00000048 alt_write_flash_command_32bit_device_32bit_mode
0080e91c g     O .rwdata	00000008 vga_dev_list
008064f8 g     F .text	000000bc _fwalk
0080836c g     F .text	00000164 alt_write_value_to_flash
00808a7c g     F .text	00000034 alt_write_native_16bit
00804040 g     F .text	00000060 __divsi3
00804d20 g     F .text	0000012c _malloc_trim_r
0080c2d4 g       *ABS*	00000000 __CTOR_END__
0080c2d4 g       *ABS*	00000000 __flash_rodata_start
0080c2d4 g       *ABS*	00000000 __DTOR_LIST__
00800dbc g     F .text	0000006c vid_get_pixel
0080c838 g     O .rwdata	00000018 cube_lines
00807e0c g     F .text	00000034 alt_irq_init
008075b0 g     F .text	00000060 alt_release_fd
00802f88 g     F .text	000000a8 rotate_cube_points
00807dc4 g     F .text	00000048 vga_clear_screen
0080c114 g     F .text	00000014 atexit
0080692c g     F .text	00000078 _write_r
0080e8e8 g     O .rwdata	00000004 _impure_ptr
00810e74 g     O .bss	00000004 alt_argc
0080ab28 g     F .text	00000064 _do_dtors
00800020 g       .exceptions	00000000 alt_irq_entry
00806288 g     F .text	00000018 __fp_unlock_all
0080e8f8 g     O .rwdata	00000008 alt_fs_list
00800918 g     F .text	00000114 vid_print_string
0080892c g     F .text	00000048 alt_write_flash_command_32bit_device_8bit_mode
00800020 g       *ABS*	00000000 __ram_exceptions_start
0080ad20 g     F .text	00000050 alt_ic_isr_register
0080e930 g       *ABS*	00000000 _edata
00811144 g       *ABS*	00000000 _end
0080ac20 g     F .text	0000007c alt_flash_open_dev
00802014 g     F .text	00000054 max3
0080c850 g     O .rwdata	000002d0 int_sin_array
008001b4 g       *ABS*	00000000 __ram_exceptions_end
0080a148 g     F .text	000000f4 altera_avalon_jtag_uart_ioctl
0080ae0c g     F .text	000000a0 alt_ic_irq_disable
00801370 g     F .text	0000004c vid_merge_colors
00806850 g     F .text	0000007c __swrite
00807a9c g     F .text	00000020 alt_vga_close_dev
0080e8f0 g     O .rwdata	00000004 __malloc_trim_threshold
00804110 g     F .text	00000038 exit
0080642c g     F .text	000000cc _fwalk_reent
0080ac9c g     F .text	00000054 alt_flash_close_dev
008040a0 g     F .text	00000060 __modsi3
01000000 g       *ABS*	00000000 __alt_data_end
00800020 g     F .exceptions	00000000 alt_exception
008061c8 g     F .text	00000004 __sfp_lock_release
00800000 g       *ABS*	00000000 __alt_mem_sdram
00800c50 g     F .text	0000016c vid_set_pixel
01400000 g       *ABS*	00000000 __alt_mem_ext_flash
00806ed4 g     F .text	00000020 _exit
0080a7a0 g     F .text	00000154 alt_alarm_start
008002bc g     F .text	0000003c vid_scroll_string_quit
00807d94 g     F .text	00000030 vga_stop
008065b4 g     F .text	00000194 __smakebuf_r
00808ab0 g     F .text	00000030 alt_write_native_32bit
00804b00 g     F .text	00000074 strlen
0080b204 g     F .text	00000188 open
00808274 g     F .text	00000090 alt_flash_cfi_get_info
0080acf0 g     F .text	00000030 alt_icache_flush_all
0080e92c g     O .rwdata	00000004 alt_priority_mask
0080ad70 g     F .text	0000009c alt_ic_irq_enable
0080222c g     F .text	00000260 vid_bres_scan_edges
0080e914 g     O .rwdata	00000008 alt_alarm_list
008020bc g     F .text	00000064 max_diff3
0080aac4 g     F .text	00000064 _do_ctors
00806d0c g     F .text	000000fc close
0080b470 g     F .text	00000068 alt_program_amd
00807148 g     F .text	00000080 alt_load
00804148 g     F .text	00000014 free
008061cc g     F .text	00000004 __sinit_lock_acquire


Disassembly of section .entry:

00800000 <__reset>:
    /* Assume the instruction cache size is always a power of two. */
#if NIOS2_ICACHE_SIZE > 0x8000
    movhi r2, %hi(NIOS2_ICACHE_SIZE)
#else
    movui r2, NIOS2_ICACHE_SIZE
  800000:	00840014 	movui	r2,4096
#endif

0:
    initi r2
  800004:	1001483a 	initi	r2
    addi r2, r2, -NIOS2_ICACHE_LINE_SIZE
  800008:	10bff804 	addi	r2,r2,-32
    bgt r2, zero, 0b
  80000c:	00bffd16 	blt	zero,r2,800004 <__alt_mem_sdram+0x4>
1:

    /*
     * The following debug information tells the ISS not to run the loop above
     * but to perform its actions using faster internal code.
     */
    .pushsection .debug_alt_sim_info
    .int 1, 1, 0b, 1b
    .popsection
#endif /* Initialize Instruction Cache */

/*
 * Jump to the _start entry point in the .text section if reset code
 * is allowed or if optimizing for RTL simulation.
 */
#if defined(ALT_ALLOW_CODE_AT_RESET) || defined(ALT_SIM_OPTIMIZE)
    /* Jump to the _start entry point in the .text section. */
    movhi r1, %hi(_start)
  800010:	00402034 	movhi	at,128
    ori r1, r1, %lo(_start)
  800014:	08406d14 	ori	at,at,436
    jmp r1
  800018:	0800683a 	jmp	at
  80001c:	00000000 	call	0 <__alt_mem_sdram-0x800000>
Disassembly of section .exceptions:

00800020 <alt_exception>:
         * caller saved registers on the stack (See the Nios2 ABI
         * documentation for details).
         */

        addi  sp, sp, -76
  800020:	deffed04 	addi	sp,sp,-76

#ifdef ALT_STACK_CHECK

        bltu  sp, et, .Lstack_overflow

#endif

#endif

        stw   ra,  0(sp)
  800024:	dfc00015 	stw	ra,0(sp)

        /*
         * Leave a gap in the stack frame at 4(sp) for the muldiv handler to
         * store zero into.
         */

        stw   r1,   8(sp)
  800028:	d8400215 	stw	at,8(sp)
        stw   r2,  12(sp)
  80002c:	d8800315 	stw	r2,12(sp)
        stw   r3,  16(sp)
  800030:	d8c00415 	stw	r3,16(sp)
        stw   r4,  20(sp)
  800034:	d9000515 	stw	r4,20(sp)
        stw   r5,  24(sp)
  800038:	d9400615 	stw	r5,24(sp)
        stw   r6,  28(sp)
  80003c:	d9800715 	stw	r6,28(sp)
        stw   r7,  32(sp)
  800040:	d9c00815 	stw	r7,32(sp)

        rdctl r5, estatus
  800044:	000b307a 	rdctl	r5,estatus

        stw   r8,  36(sp)
  800048:	da000915 	stw	r8,36(sp)
        stw   r9,  40(sp)
  80004c:	da400a15 	stw	r9,40(sp)
        stw   r10, 44(sp)
  800050:	da800b15 	stw	r10,44(sp)
        stw   r11, 48(sp)
  800054:	dac00c15 	stw	r11,48(sp)
        stw   r12, 52(sp)
  800058:	db000d15 	stw	r12,52(sp)
        stw   r13, 56(sp)
  80005c:	db400e15 	stw	r13,56(sp)
        stw   r14, 60(sp)
  800060:	db800f15 	stw	r14,60(sp)
        stw   r15, 64(sp)
  800064:	dbc01015 	stw	r15,64(sp)

        /*
         * ea-4 contains the address of the instruction being executed
         * when the exception occured. For interrupt exceptions, we will
         * will be re-issue the isntruction. Store it in 72(sp)
         */
        stw   r5,  68(sp)  /* estatus */
  800068:	d9401115 	stw	r5,68(sp)
        addi  r15, ea, -4  /* instruction that caused exception */
  80006c:	ebffff04 	addi	r15,ea,-4
        stw   r15,  72(sp)
  800070:	dbc01215 	stw	r15,72(sp)
        /*
         * Test to see if the exception was a software exception or caused 
         * by an external interrupt, and vector accordingly.
         */
        rdctl r4, ipending
  800074:	0009313a 	rdctl	r4,ipending
        andi  r2, r5, 1
  800078:	2880004c 	andi	r2,r5,1
        beq   r2, zero, .Lnot_irq
  80007c:	10000326 	beq	r2,zero,80008c <__flash_exceptions_start+0x6c>
        beq   r4, zero, .Lnot_irq
  800080:	20000226 	beq	r4,zero,80008c <__flash_exceptions_start+0x6c>
#endif /* ALT_CI_INTERRUPT_VECTOR_N */

        .section .exceptions.irqhandler, "xa"
        /*
         * Now that all necessary registers have been preserved, call 
         * alt_irq_handler() to process the interrupts.
         */

        call alt_irq_handler
  800084:	08000ec0 	call	8000ec <alt_irq_handler>

        .section .exceptions.irqreturn, "xa"

        br    .Lexception_exit
  800088:	00000306 	br	800098 <__flash_exceptions_start+0x78>

        /*
         * The interrupt testing code (.exceptions.irqtest) will be
         * linked here. If the Internal Interrupt Controller (IIC) is
         * present (an EIC is not present), the presense of an interrupt
         * is determined by examining CPU control registers or an interrupt
         * custom instruction, if present. 
         * 
         * If the IIC is used and an interrupt is active, the code linked 
         * here will call the HAL IRQ handler (alt_irq_handler()) which 
         * successively calls registered interrupt handler(s) until no 
         * interrupts remain pending. It then jumps to .exceptions.exit. If 
         * there is no interrupt then it continues to .exception.notirq, below.
         */

        .section .exceptions.notirq, "xa"

        /*
         * Prepare to service unimplemtned instructions or traps,
         * each of which is optionally inked into section .exceptions.soft,
         * which will preceed .exceptions.unknown below.
         *
         * Unlike interrupts, we want to skip the exception-causing instructon
         * upon completion, so we write ea (address of instruction *after*
         * the one where the exception occured) into 72(sp). The actual
         * instruction that caused the exception is written in r2, which these
         * handlers will utilize.
         */
        stw   ea,  72(sp)  /* Don't re-issue */
  80008c:	df401215 	stw	ea,72(sp)
        ldw   r2, -4(ea)   /* Instruction that caused exception */
  800090:	e8bfff17 	ldw	r2,-4(ea)

        /*
         * Other exception handling code, if enabled, will be linked here.
         * This includes unimplemted (multiply/divide) instruction support
         * (a BSP generaton option), and a trap handler (that would typically
         * be augmented with user-specific code). These are not linked in by
         * default.
         */

        /*
         * In the context of linker sections, "unknown" are all exceptions
         * not handled by the built-in handlers above (interupt, and trap or
         * unimplemented instruction decoding, if enabled).
         *
         * Advanced exception types can be serviced by registering a handler.
         * To do so, enable the "Enable Instruction-related Exception API" HAL
         * BSP setting. If this setting is disabled, this handler code will
         * either break (if the debug core is present) or enter an infinite
         * loop because we don't how how to handle the exception.
         */
        .section .exceptions.unknown
#ifdef ALT_INCLUDE_INSTRUCTION_RELATED_EXCEPTION_API
        /*
         * The C-based HAL routine alt_instruction_exception_entry() will
         * attempt to service the exception by calling a user-registered
         * exception handler using alt_instruction_exception_register().
         * If no handler was registered it will either break (if the
         * debugger is present) or go into an infinite loop since the
         * handling behavior is undefined; in that case we will not return here.
         */

        /* Load exception-causing address as first argument (r4) */
        addi   r4, ea, -4

        /* Call the instruction-exception entry */
        call   alt_instruction_exception_entry

        /*
         * If alt_instruction_exception_entry() returned, the exception was
         * serviced by a user-registered routine. Its return code (now in r2)
         * indicates whether to re-issue or skip the exception-causing
         * instruction
         *
         * Return code was 0: Skip. The instruction after the exception is
         * already stored in 72(sp).
         */
        bne   r2, r0, .Lexception_exit

        /*
         * Otherwise, modify 72(sp) to re-issue the instruction that caused the
         * exception.
         */
        addi  r15, ea, -4  /* instruction that caused exception */
        stw   r15,  72(sp)

#else /* ALT_INCLUDE_INSTRUCTION_RELATED_EXCEPTION_API disabled */

        /*
         * We got here because an instruction-related exception occured, but the
         * handler API was not compiled in. We do not presume to know how to
         * handle it. If the debugger is present, break, otherwise hang.
         *
         *  If you get here then one of the following could have happened:
         *
         *  - An instruction-generated exception occured, and the processor
         *    does not have the extra exceptions feature enabled, or you
         *    have not registered a handler using
         *    alt_instruction_exception_register()
         *
         *  Some examples of instruction-generated exceptions and why they
         *  might occur:
         *
         *  - Your program could have been compiled for a full-featured
         *    Nios II core, but it is running on a smaller core, and
         *    instruction emulation has been disabled by defining
         *    ALT_NO_INSTRUCTION_EMULATION.
         *
         *    You can work around the problem by re-enabling instruction
         *    emulation, or you can figure out why your program is being
         *    compiled for a system other than the one that it is running on.
         *
         *  - Your program has executed a trap instruction, but has not
         *    implemented a handler for this instruction.
         *
         *  - Your program has executed an illegal instruction (one which is
         *    not defined in the instruction set).
         *
         *  - Your processor includes an MMU or MPU, and you have enabled it
         *    before registering an exception handler to service exceptions it
         *    generates.
         *
         * The problem could also be hardware related:
         *  - If your hardware is broken and is generating spurious interrupts
         *    (a peripheral which negates its interrupt output before its
         *    interrupt handler has been executed will cause spurious
         *    interrupts)
         */
#ifdef NIOS2_HAS_DEBUG_STUB
       /*
        *  Either tell the user now (if there is a debugger attached) or go into
        *  the debug monitor which will loop until a debugger is attached.
        */
        break
  800094:	003da03a 	break	0
#else
       /*
        *  If there is no debug stub then a BREAK will probably cause a reboot.
        *  An infinate loop will probably be more useful.
        */
0:
        br   0b
#endif /* NIOS2_HAS_DEBUG_STUB */

#endif /* ALT_INCLUDE_INSTRUCTION_RELATED_EXCEPTION_API */

        .section .exceptions.exit.label
.Lexception_exit:

        .section .exceptions.exit, "xa"

        /* 
         * Restore the saved registers, so that all general purpose registers 
         * have been restored to their state at the time the interrupt occured.
         */

        ldw   r5,  68(sp)
  800098:	d9401117 	ldw	r5,68(sp)
        ldw   ea,  72(sp)  /* This becomes the PC once eret is executed */
  80009c:	df401217 	ldw	ea,72(sp)
        ldw   ra,   0(sp)
  8000a0:	dfc00017 	ldw	ra,0(sp)

        wrctl estatus, r5
  8000a4:	2801707a 	wrctl	estatus,r5

        ldw   r1,   8(sp)
  8000a8:	d8400217 	ldw	at,8(sp)
        ldw   r2,  12(sp)
  8000ac:	d8800317 	ldw	r2,12(sp)
        ldw   r3,  16(sp)
  8000b0:	d8c00417 	ldw	r3,16(sp)
        ldw   r4,  20(sp)
  8000b4:	d9000517 	ldw	r4,20(sp)
        ldw   r5,  24(sp)
  8000b8:	d9400617 	ldw	r5,24(sp)
        ldw   r6,  28(sp)
  8000bc:	d9800717 	ldw	r6,28(sp)
        ldw   r7,  32(sp)
  8000c0:	d9c00817 	ldw	r7,32(sp)

#ifdef ALT_EXCEPTION_STACK
#ifdef ALT_STACK_CHECK
        ldw   et, %gprel(alt_exception_old_stack_limit)(gp)
#endif
#endif

        ldw   r8,  36(sp)
  8000c4:	da000917 	ldw	r8,36(sp)
        ldw   r9,  40(sp)
  8000c8:	da400a17 	ldw	r9,40(sp)
        ldw   r10, 44(sp)
  8000cc:	da800b17 	ldw	r10,44(sp)
        ldw   r11, 48(sp)
  8000d0:	dac00c17 	ldw	r11,48(sp)
        ldw   r12, 52(sp)
  8000d4:	db000d17 	ldw	r12,52(sp)
        ldw   r13, 56(sp)
  8000d8:	db400e17 	ldw	r13,56(sp)
        ldw   r14, 60(sp)
  8000dc:	db800f17 	ldw	r14,60(sp)
        ldw   r15, 64(sp)
  8000e0:	dbc01017 	ldw	r15,64(sp)

#ifdef ALT_EXCEPTION_STACK

#ifdef ALT_STACK_CHECK
        stw   et, %gprel(alt_stack_limit_value)(gp)
        stw   zero, %gprel(alt_exception_old_stack_limit)(gp)
#endif

        ldw   sp,  76(sp)

#else
        addi  sp, sp, 76
  8000e4:	dec01304 	addi	sp,sp,76

#endif

        /*
         * Return to the interrupted instruction.
         */

        eret
  8000e8:	ef80083a 	eret

008000ec <alt_irq_handler>:
 */

void alt_irq_handler (void) __attribute__ ((section (".exceptions")));
void alt_irq_handler (void)
{
  8000ec:	defff904 	addi	sp,sp,-28
  8000f0:	dfc00615 	stw	ra,24(sp)
  8000f4:	df000515 	stw	fp,20(sp)
  8000f8:	df000504 	addi	fp,sp,20
static ALT_INLINE alt_u32 ALT_ALWAYS_INLINE alt_irq_pending (void)
{
  alt_u32 active;

  NIOS2_READ_IPENDING (active);
  8000fc:	0005313a 	rdctl	r2,ipending
  800100:	e0bffc15 	stw	r2,-16(fp)

  return active;
  800104:	e0bffc17 	ldw	r2,-16(fp)
#ifdef ALT_CI_INTERRUPT_VECTOR
  alt_32 offset;
  char*  alt_irq_base = (char*)alt_irq;
#else
  alt_u32 active;
  alt_u32 mask;
  alt_u32 i;
#endif /* ALT_CI_INTERRUPT_VECTOR */
  
  /*
   * Notify the operating system that we are at interrupt level.
   */ 
  
  ALT_OS_INT_ENTER();

#ifdef ALT_CI_INTERRUPT_VECTOR
  /*
   * Call the interrupt vector custom instruction using the 
   * ALT_CI_INTERRUPT_VECTOR macro.
   * It returns the offset into the vector table of the lowest-valued pending
   * interrupt (corresponds to highest priority) or a negative value if none.
   * The custom instruction assumes that each table entry is eight bytes.
   */
  while ((offset = ALT_CI_INTERRUPT_VECTOR) >= 0) {
    struct ALT_IRQ_HANDLER* handler_entry = 
      (struct ALT_IRQ_HANDLER*)(alt_irq_base + offset);
#ifdef ALT_ENHANCED_INTERRUPT_API_PRESENT
    handler_entry->handler(handler_entry->context);
#else
    handler_entry->handler(handler_entry->context, offset >> 3);
#endif
  }
#else /* ALT_CI_INTERRUPT_VECTOR */
  /* 
   * Obtain from the interrupt controller a bit list of pending interrupts,
   * and then process the highest priority interrupt. This process loops, 
   * loading the active interrupt list on each pass until alt_irq_pending() 
   * return zero.
   * 
   * The maximum interrupt latency for the highest priority interrupt is
   * reduced by finding out which interrupts are pending as late as possible.
   * Consider the case where the high priority interupt is asserted during
   * the interrupt entry sequence for a lower priority interrupt to see why
   * this is the case.
   */

  active = alt_irq_pending ();
  800108:	e0bfff15 	stw	r2,-4(fp)

  do
  {
    i = 0;
  80010c:	e03ffd15 	stw	zero,-12(fp)
    mask = 1;
  800110:	00800044 	movi	r2,1
  800114:	e0bffe15 	stw	r2,-8(fp)

    /*
     * Test each bit in turn looking for an active interrupt. Once one is 
     * found, the interrupt handler asigned by a call to alt_irq_register() is
     * called to clear the interrupt condition.
     */

    do
    {
      if (active & mask)
  800118:	e0ffff17 	ldw	r3,-4(fp)
  80011c:	e0bffe17 	ldw	r2,-8(fp)
  800120:	1884703a 	and	r2,r3,r2
  800124:	1005003a 	cmpeq	r2,r2,zero
  800128:	1000161e 	bne	r2,zero,800184 <alt_irq_handler+0x98>
      { 
#ifdef ALT_ENHANCED_INTERRUPT_API_PRESENT
        alt_irq[i].handler(alt_irq[i].context); 
  80012c:	e0bffd17 	ldw	r2,-12(fp)
  800130:	00c02074 	movhi	r3,129
  800134:	18c3ad04 	addi	r3,r3,3764
  800138:	100490fa 	slli	r2,r2,3
  80013c:	10c5883a 	add	r2,r2,r3
  800140:	11400017 	ldw	r5,0(r2)
  800144:	e0bffd17 	ldw	r2,-12(fp)
  800148:	00c02074 	movhi	r3,129
  80014c:	18c3ad04 	addi	r3,r3,3764
  800150:	100490fa 	slli	r2,r2,3
  800154:	10c5883a 	add	r2,r2,r3
  800158:	10800104 	addi	r2,r2,4
  80015c:	11000017 	ldw	r4,0(r2)
  800160:	283ee83a 	callr	r5
static ALT_INLINE alt_u32 ALT_ALWAYS_INLINE alt_irq_pending (void)
{
  alt_u32 active;

  NIOS2_READ_IPENDING (active);
  800164:	0005313a 	rdctl	r2,ipending
  800168:	e0bffb15 	stw	r2,-20(fp)

  return active;
  80016c:	e0bffb17 	ldw	r2,-20(fp)
#else
        alt_irq[i].handler(alt_irq[i].context, i); 
#endif
        break;
      }
      mask <<= 1;
      i++;

    } while (1);

    active = alt_irq_pending ();
  800170:	e0bfff15 	stw	r2,-4(fp)
    
  } while (active);
  800174:	e0bfff17 	ldw	r2,-4(fp)
  800178:	1004c03a 	cmpne	r2,r2,zero
  80017c:	103fe31e 	bne	r2,zero,80010c <alt_irq_handler+0x20>
  800180:	00000706 	br	8001a0 <alt_irq_handler+0xb4>
  800184:	e0bffe17 	ldw	r2,-8(fp)
  800188:	1085883a 	add	r2,r2,r2
  80018c:	e0bffe15 	stw	r2,-8(fp)
  800190:	e0bffd17 	ldw	r2,-12(fp)
  800194:	10800044 	addi	r2,r2,1
  800198:	e0bffd15 	stw	r2,-12(fp)
  80019c:	003fde06 	br	800118 <alt_irq_handler+0x2c>
#endif /* ALT_CI_INTERRUPT_VECTOR */

  /*
   * Notify the operating system that interrupt processing is complete.
   */ 

  ALT_OS_INT_EXIT();
}
  8001a0:	e037883a 	mov	sp,fp
  8001a4:	dfc00117 	ldw	ra,4(sp)
  8001a8:	df000017 	ldw	fp,0(sp)
  8001ac:	dec00204 	addi	sp,sp,8
  8001b0:	f800283a 	ret
Disassembly of section .text:

008001b4 <_start>:

    .size __reset, . - __reset
#endif /* Jump to _start */

/*
 * When not using exit, provide an _exit symbol to prevent unresolved
 * references to _exit from the linker script.
 */
#ifdef ALT_NO_EXIT
    .globl _exit
_exit:
#endif

/*************************************************************************\
|                          TEXT SECTION (.text)                           |
\*************************************************************************/

/*
 * Start of the .text section, and also the code entry point when
 * the code is executed by a bootloader rather than directly from reset.
 */
    .section .text
    .align 2

    .globl _start
    .type _start, @function
_start:

/*
 * Initialize the data cache if present (i.e. size > 0) and not
 * optimizing for RTL simulation.
 * RTL simulations can ensure the data cache is already initialized
 * so skipping this loop speeds up RTL simulation.
 */

#if NIOS2_DCACHE_SIZE > 0 && !defined(ALT_SIM_OPTIMIZE)

    /* Assume the data cache size is always a power of two. */
#if NIOS2_DCACHE_SIZE > 0x8000
    movhi r2, %hi(NIOS2_DCACHE_SIZE)
#else
    movui r2, NIOS2_DCACHE_SIZE
  8001b4:	00820014 	movui	r2,2048
#endif

0:
    initd 0(r2)
  8001b8:	10000033 	initd	0(r2)
    addi r2, r2, -NIOS2_DCACHE_LINE_SIZE
  8001bc:	10bfff04 	addi	r2,r2,-4
    bgt r2, zero, 0b
  8001c0:	00bffd16 	blt	zero,r2,8001b8 <__ram_exceptions_end+0x4>
1:

    /*
     * The following debug information tells the ISS not to run the loop above
     * but to perform its actions using faster internal code.
     */
    .pushsection .debug_alt_sim_info
    .int 2, 1, 0b, 1b
    .popsection

#endif /* Initialize Data Cache */

    /* Log that caches have been initialized. */
    ALT_LOG_PUTS(alt_log_msg_cache)

    /* Log that the stack pointer is about to be setup. */
    ALT_LOG_PUTS(alt_log_msg_stackpointer)

#if (NIOS2_NUM_OF_SHADOW_REG_SETS == 0)    
    /*
     * Now that the caches are initialized, set up the stack pointer.
     * The value provided by the linker is assumed to be correctly aligned.
     */
    movhi sp, %hi(__alt_stack_pointer)
  8001c4:	06c04034 	movhi	sp,256
    ori sp, sp, %lo(__alt_stack_pointer)
  8001c8:	dec00014 	ori	sp,sp,0

    /* Set up the global pointer. */
    movhi gp, %hi(_gp)
  8001cc:	06802074 	movhi	gp,129
    ori gp, gp, %lo(_gp)
  8001d0:	d69a3914 	ori	gp,gp,26852

#else /* NIOS2_NUM_OF_SHADOW_REG_SETS > 0 */

    /*
     * Set up the GP and SP in all shadow register sets.
     */

    /* 
     * Check current register set number, if CPU resets into a shadow register 
     * set, switch register set to 0 by writing zero to SSTATUS register and 
     * execute an ERET instruction that just jumps to the next PC address 
     * (use the NEXTPC instruction to get this).
     */
    
    rdctl r2, status
    
    /* Get the current register set number (STATUS.CRS). */
    andi r3, r2, NIOS2_STATUS_CRS_MSK
    
    /* Skip switch register set if STATUS.CRS is 0.  */
    beq r3, zero, .Lskip_switch_reg_set
    
    .set nobreak
    
    /* Current register set is non-zero, set SSTATUS to 0. */
    mov sstatus, zero
    
    /* Get next pc and store in ea. */
    nextpc ea
    
    /* Point to instruction after eret. */
    addi ea, ea, 8
    
    /* 
     * Execute ERET instruction that just jumps to the next PC address 
     */
    eret
    
.Lskip_switch_reg_set:    
    mov r2, zero
    
    /* Reset STATUS register */
    wrctl status, r2

    movui r3, NIOS2_NUM_OF_SHADOW_REG_SETS
    
    /* Set up the stack pointer in register set 0. */
    movhi sp, %hi(__alt_stack_pointer)
    ori sp, sp, %lo(__alt_stack_pointer)
    
    /* Set up the global pointer in register set 0. */
    movhi gp, %hi(_gp)
    ori gp, gp, %lo(_gp)     

.Lsetup_sp_and_gp_loop:
    /* 
     * Setup GP and SP for shadow register set 
     * from NIOS2_NUM_OF_SHADOW_REG_SETS to 0
     */

    /* Skip if number of register sets is 0. */
    beq r3, zero, .Lno_shadow_register_set


    /* Add previous register set STATUS.PRS by 1 */
    movhi r4, 1
    add r2, r2, r4

    /* Write STATUS */
    wrctl status, r2

    /* Clear r0 in the shadow register set (not done by hardware) */
    wrprs r0, r0

    /* Write the GP in previous register set */
    wrprs gp, gp

    /* Only write the SP in previous register set
     * if using the seperate exception stack. For normal case (single stack),
     * funnel code would read the SP from previous register set.
     */
#ifdef ALT_INTERRUPT_STACK

    movhi et, %hiadj(__alt_interrupt_stack_pointer)
    addi  et, et, %lo(__alt_interrupt_stack_pointer)
    wrprs sp, et

#endif /* ALT_INTERRUPT_STACK */

    /* Decrease number of register set counter by 1 */
    addi r3, r3, -1

    br .Lsetup_sp_and_gp_loop
.Lno_shadow_register_set:

#endif /* NIOS2_NUM_OF_SHADOW_REG_SETS */
/*
 * Clear the BSS if not optimizing for RTL simulation.
 *
 * This uses the symbols: __bss_start and __bss_end, which are defined
 * by the linker script. They mark the begining and the end of the bss
 * region. The linker script guarantees that these values are word aligned.
 */
#ifndef ALT_SIM_OPTIMIZE
    /* Log that the BSS is about to be cleared. */
    ALT_LOG_PUTS(alt_log_msg_bss)

    movhi r2, %hi(__bss_start)
  8001d4:	00802074 	movhi	r2,129
    ori r2, r2, %lo(__bss_start)
  8001d8:	10839914 	ori	r2,r2,3684

    movhi r3, %hi(__bss_end)
  8001dc:	00c02074 	movhi	r3,129
    ori r3, r3, %lo(__bss_end)
  8001e0:	18c45114 	ori	r3,r3,4420

    beq r2, r3, 1f
  8001e4:	10c00326 	beq	r2,r3,8001f4 <__ram_exceptions_end+0x40>

0:
    stw zero, (r2)
  8001e8:	10000015 	stw	zero,0(r2)
    addi r2, r2, 4
  8001ec:	10800104 	addi	r2,r2,4
    bltu r2, r3, 0b
  8001f0:	10fffd36 	bltu	r2,r3,8001e8 <__ram_exceptions_end+0x34>

1:

    /*
     * The following debug information tells the ISS not to run the loop above
     * but to perform its actions using faster internal code.
     */
    .pushsection .debug_alt_sim_info
    .int 3, 1, 0b, 1b
    .popsection
#endif /* ALT_SIM_OPTIMIZE */

/*
 * The alt_load() facility is normally used when there is no bootloader.
 * It copies some sections into RAM so it acts like a mini-bootloader.
 */
#ifdef CALL_ALT_LOAD

#ifdef ALT_STACK_CHECK
    /*
     * If the user has selected stack checking then we need to set up a safe
     * value in the stack limit register so that the relocation functions
     * don't think the stack has overflowed (the contents of the rwdata
     * section aren't defined until alt_load() has been called).
     */
    mov   et, zero
#endif

    call alt_load
  8001f4:	08071480 	call	807148 <alt_load>

#endif /* CALL_ALT_LOAD */

#ifdef ALT_STACK_CHECK
    /*
     * Set up the stack limit (if required).  The linker has set up the
     * copy of the variable which is in memory.
     */

    ldw   et, %gprel(alt_stack_limit_value)(gp)
#endif

    /* Log that alt_main is about to be called. */
    ALT_LOG_PUTS(alt_log_msg_alt_main)

    /* Call the C entry point. It should never return. */
    call alt_main
  8001f8:	08073840 	call	807384 <alt_main>

008001fc <alt_after_alt_main>:

    /* Wait in infinite loop in case alt_main does return. */
alt_after_alt_main:
    br alt_after_alt_main
  8001fc:	003fff06 	br	8001fc <alt_after_alt_main>

00800200 <vid_draw_line>:
*           vid_draw_sloped_line.
*
******************************************************************/
__inline__ void vid_draw_line(int horiz_start, int vert_start, int horiz_end, int vert_end, int width, int color, display_frame_buffer_struct* frame_buffer)
{
  800200:	defff704 	addi	sp,sp,-36
  800204:	dfc00815 	stw	ra,32(sp)
  800208:	df000715 	stw	fp,28(sp)
  80020c:	df000704 	addi	fp,sp,28
  800210:	e13ffc15 	stw	r4,-16(fp)
  800214:	e17ffd15 	stw	r5,-12(fp)
  800218:	e1bffe15 	stw	r6,-8(fp)
  80021c:	e1ffff15 	stw	r7,-4(fp)
 
  if( vert_start == vert_end )
  800220:	e0fffd17 	ldw	r3,-12(fp)
  800224:	e0bfff17 	ldw	r2,-4(fp)
  800228:	18800f1e 	bne	r3,r2,800268 <vid_draw_line+0x68>
  {
//    c2h_draw_horiz_line( (unsigned short)horiz_start, 
//                         (unsigned short)horiz_end,  
//                         (unsigned short)vert_start,
//                         color,
//                         frame_buffer->frame1);

    vid_draw_horiz_line( (unsigned short)horiz_start, 
  80022c:	e0bffc17 	ldw	r2,-16(fp)
  800230:	113fffcc 	andi	r4,r2,65535
  800234:	2120001c 	xori	r4,r4,32768
  800238:	21200004 	addi	r4,r4,-32768
  80023c:	e0bffe17 	ldw	r2,-8(fp)
  800240:	117fffcc 	andi	r5,r2,65535
  800244:	2960001c 	xori	r5,r5,32768
  800248:	29600004 	addi	r5,r5,-32768
  80024c:	e0bffd17 	ldw	r2,-12(fp)
  800250:	11bfffcc 	andi	r6,r2,65535
  800254:	e0800417 	ldw	r2,16(fp)
  800258:	d8800015 	stw	r2,0(sp)
  80025c:	e1c00317 	ldw	r7,12(fp)
  800260:	08010980 	call	801098 <vid_draw_horiz_line>
  800264:	00001006 	br	8002a8 <vid_draw_line+0xa8>
                         (unsigned short)horiz_end, 
                         (unsigned short)vert_start,
                         color,
                         frame_buffer );
  }
  else
  {
    vid_draw_sloped_line( (unsigned short)horiz_start, 
  800268:	e0bffc17 	ldw	r2,-16(fp)
  80026c:	113fffcc 	andi	r4,r2,65535
  800270:	e0bffd17 	ldw	r2,-12(fp)
  800274:	117fffcc 	andi	r5,r2,65535
  800278:	e0bffe17 	ldw	r2,-8(fp)
  80027c:	11bfffcc 	andi	r6,r2,65535
  800280:	e0bfff17 	ldw	r2,-4(fp)
  800284:	11ffffcc 	andi	r7,r2,65535
  800288:	e0800217 	ldw	r2,8(fp)
  80028c:	10bfffcc 	andi	r2,r2,65535
  800290:	d8800015 	stw	r2,0(sp)
  800294:	e0800317 	ldw	r2,12(fp)
  800298:	d8800115 	stw	r2,4(sp)
  80029c:	e0800417 	ldw	r2,16(fp)
  8002a0:	d8800215 	stw	r2,8(sp)
  8002a4:	08017800 	call	801780 <vid_draw_sloped_line>
                          (unsigned short)vert_start, 
                          (unsigned short)horiz_end, 
                          (unsigned short)vert_end, 
                          (unsigned short)width, 
                          color,
                          frame_buffer );
  }
}
  8002a8:	e037883a 	mov	sp,fp
  8002ac:	dfc00117 	ldw	ra,4(sp)
  8002b0:	df000017 	ldw	fp,0(sp)
  8002b4:	dec00204 	addi	sp,sp,8
  8002b8:	f800283a 	ret

008002bc <vid_scroll_string_quit>:



void vid_scroll_string_quit(vid_text_scroll_struct* scroll)
{
  8002bc:	defffd04 	addi	sp,sp,-12
  8002c0:	dfc00215 	stw	ra,8(sp)
  8002c4:	df000115 	stw	fp,4(sp)
  8002c8:	df000104 	addi	fp,sp,4
  8002cc:	e13fff15 	stw	r4,-4(fp)
  free(scroll->string);
  8002d0:	e0bfff17 	ldw	r2,-4(fp)
  8002d4:	11000517 	ldw	r4,20(r2)
  8002d8:	08041480 	call	804148 <free>
  free(scroll);
  8002dc:	e13fff17 	ldw	r4,-4(fp)
  8002e0:	08041480 	call	804148 <free>
}
  8002e4:	e037883a 	mov	sp,fp
  8002e8:	dfc00117 	ldw	ra,4(sp)
  8002ec:	df000017 	ldw	fp,0(sp)
  8002f0:	dec00204 	addi	sp,sp,8
  8002f4:	f800283a 	ret

008002f8 <vid_scroll_string_init>:

vid_text_scroll_struct* vid_scroll_string_init(int hbegin, int vbegin, int hend, int f_color, int b_color, char* font, int ms_delay, char *string)
{
  8002f8:	defff904 	addi	sp,sp,-28
  8002fc:	dfc00615 	stw	ra,24(sp)
  800300:	df000515 	stw	fp,20(sp)
  800304:	df000504 	addi	fp,sp,20
  800308:	e13ffc15 	stw	r4,-16(fp)
  80030c:	e17ffd15 	stw	r5,-12(fp)
  800310:	e1bffe15 	stw	r6,-8(fp)
  800314:	e1ffff15 	stw	r7,-4(fp)
  vid_text_scroll_struct* scroll;
  scroll = malloc(sizeof (vid_text_scroll_struct));
  800318:	01000f04 	movi	r4,60
  80031c:	080415c0 	call	80415c <malloc>
  800320:	e0bffb15 	stw	r2,-20(fp)
  
  scroll->hbegin = hbegin;
  800324:	e0fffb17 	ldw	r3,-20(fp)
  800328:	e0bffc17 	ldw	r2,-16(fp)
  80032c:	18800015 	stw	r2,0(r3)
  scroll->vbegin = vbegin;
  800330:	e0fffb17 	ldw	r3,-20(fp)
  800334:	e0bffd17 	ldw	r2,-12(fp)
  800338:	18800115 	stw	r2,4(r3)
  scroll->hend = hend;
  80033c:	e0fffb17 	ldw	r3,-20(fp)
  800340:	e0bffe17 	ldw	r2,-8(fp)
  800344:	18800215 	stw	r2,8(r3)
  scroll->f_color = f_color;
  800348:	e0fffb17 	ldw	r3,-20(fp)
  80034c:	e0bfff17 	ldw	r2,-4(fp)
  800350:	18800315 	stw	r2,12(r3)
  scroll->b_color = b_color;
  800354:	e0fffb17 	ldw	r3,-20(fp)
  800358:	e0800217 	ldw	r2,8(fp)
  80035c:	18800415 	stw	r2,16(r3)
  scroll->string = malloc(strlen(string)+2);
  800360:	e1000517 	ldw	r4,20(fp)
  800364:	0804b000 	call	804b00 <strlen>
  800368:	11000084 	addi	r4,r2,2
  80036c:	080415c0 	call	80415c <malloc>
  800370:	1007883a 	mov	r3,r2
  800374:	e0bffb17 	ldw	r2,-20(fp)
  800378:	10c00515 	stw	r3,20(r2)
  strcpy(scroll->string, string);
  80037c:	e0bffb17 	ldw	r2,-20(fp)
  800380:	11000517 	ldw	r4,20(r2)
  800384:	e1400517 	ldw	r5,20(fp)
  800388:	0804a740 	call	804a74 <strcpy>
  scroll->font = font;
  80038c:	e0fffb17 	ldw	r3,-20(fp)
  800390:	e0800317 	ldw	r2,12(fp)
  800394:	18800615 	stw	r2,24(r3)
  scroll->ms_delay = ms_delay;
  800398:	e0fffb17 	ldw	r3,-20(fp)
  80039c:	e0800417 	ldw	r2,16(fp)
  8003a0:	18800715 	stw	r2,28(r3)
 */

static ALT_INLINE alt_u32 ALT_ALWAYS_INLINE alt_nticks (void)
{
  return _alt_nticks;
  8003a4:	00802074 	movhi	r2,129
  8003a8:	1083a104 	addi	r2,r2,3716
  8003ac:	10800017 	ldw	r2,0(r2)
  scroll->ticks_at_last_move = alt_nticks();
  8003b0:	1007883a 	mov	r3,r2
  8003b4:	e0bffb17 	ldw	r2,-20(fp)
  8003b8:	10c00815 	stw	r3,32(r2)
  scroll->text_scroll_index = 0;
  8003bc:	e0bffb17 	ldw	r2,-20(fp)
  8003c0:	10000915 	stw	zero,36(r2)
  scroll->text_scroll_started = 0;
  8003c4:	e0bffb17 	ldw	r2,-20(fp)
  8003c8:	10000a05 	stb	zero,40(r2)
  scroll->window_width = scroll->hend - scroll->hbegin;
  8003cc:	e0bffb17 	ldw	r2,-20(fp)
  8003d0:	10c00217 	ldw	r3,8(r2)
  8003d4:	e0bffb17 	ldw	r2,-20(fp)
  8003d8:	10800017 	ldw	r2,0(r2)
  8003dc:	1887c83a 	sub	r3,r3,r2
  8003e0:	e0bffb17 	ldw	r2,-20(fp)
  8003e4:	10c00b15 	stw	r3,44(r2)
  scroll->length_of_string = strlen(string);
  8003e8:	e1000517 	ldw	r4,20(fp)
  8003ec:	0804b000 	call	804b00 <strlen>
  8003f0:	1007883a 	mov	r3,r2
  8003f4:	e0bffb17 	ldw	r2,-20(fp)
  8003f8:	10c00c15 	stw	r3,48(r2)
  scroll->string_points = scroll->length_of_string * 8;
  8003fc:	e0bffb17 	ldw	r2,-20(fp)
  800400:	10800c17 	ldw	r2,48(r2)
  800404:	100690fa 	slli	r3,r2,3
  800408:	e0bffb17 	ldw	r2,-20(fp)
  80040c:	10c00e15 	stw	r3,56(r2)
  scroll->scroll_points = (scroll->window_width + scroll->string_points);
  800410:	e0bffb17 	ldw	r2,-20(fp)
  800414:	10c00b17 	ldw	r3,44(r2)
  800418:	e0bffb17 	ldw	r2,-20(fp)
  80041c:	10800e17 	ldw	r2,56(r2)
  800420:	1887883a 	add	r3,r3,r2
  800424:	e0bffb17 	ldw	r2,-20(fp)
  800428:	10c00d15 	stw	r3,52(r2)
 
  return(scroll);
  80042c:	e0bffb17 	ldw	r2,-20(fp)
  
}
  800430:	e037883a 	mov	sp,fp
  800434:	dfc00117 	ldw	ra,4(sp)
  800438:	df000017 	ldw	fp,0(sp)
  80043c:	dec00204 	addi	sp,sp,8
  800440:	f800283a 	ret

00800444 <vid_scroll_string>:


int vid_scroll_string(vid_text_scroll_struct* scroll, display_frame_buffer_struct* frame_buffer)
{
  800444:	deffeb04 	addi	sp,sp,-84
  800448:	dfc01415 	stw	ra,80(sp)
  80044c:	df001315 	stw	fp,76(sp)
  800450:	dc401215 	stw	r17,72(sp)
  800454:	dc001115 	stw	r16,68(sp)
  800458:	df001104 	addi	fp,sp,68
  80045c:	e13ffc15 	stw	r4,-16(fp)
  800460:	e17ffd15 	stw	r5,-12(fp)

  int x_start, x_end, x_index, string_x_index, string_char_index, char_row, char_column;
  char character, column_mask;
  char* font_char_ptr;
  char pixels_to_move_by = 1;
  800464:	00800044 	movi	r2,1
  800468:	e0bff205 	stb	r2,-56(fp)
 */

static ALT_INLINE alt_u32 ALT_ALWAYS_INLINE alt_nticks (void)
{
  return _alt_nticks;
  80046c:	00802074 	movhi	r2,129
  800470:	1083a104 	addi	r2,r2,3716
  800474:	10800017 	ldw	r2,0(r2)
  800478:	1021883a 	mov	r16,r2

  // If it's time to move the scroll..
  if (alt_nticks() >= (scroll->ticks_at_last_move + ((alt_ticks_per_second() * (scroll->ms_delay)) / 1000))) {
  80047c:	e0bffc17 	ldw	r2,-16(fp)
  800480:	10800817 	ldw	r2,32(r2)
  800484:	1023883a 	mov	r17,r2
 */

static ALT_INLINE alt_u32 ALT_ALWAYS_INLINE alt_ticks_per_second (void)
{
  return _alt_tick_rate;
  800488:	00802074 	movhi	r2,129
  80048c:	1083a004 	addi	r2,r2,3712
  800490:	10800017 	ldw	r2,0(r2)
  800494:	1007883a 	mov	r3,r2
  800498:	e0bffc17 	ldw	r2,-16(fp)
  80049c:	10800717 	ldw	r2,28(r2)
  8004a0:	1889383a 	mul	r4,r3,r2
  8004a4:	0140fa04 	movi	r5,1000
  8004a8:	08041000 	call	804100 <__udivsi3>
  8004ac:	8885883a 	add	r2,r17,r2
  8004b0:	8080ca36 	bltu	r16,r2,8007dc <vid_scroll_string+0x398>
 */

static ALT_INLINE alt_u32 ALT_ALWAYS_INLINE alt_nticks (void)
{
  return _alt_nticks;
  8004b4:	00802074 	movhi	r2,129
  8004b8:	1083a104 	addi	r2,r2,3716
  8004bc:	10800017 	ldw	r2,0(r2)
    scroll->ticks_at_last_move = alt_nticks();
  8004c0:	1007883a 	mov	r3,r2
  8004c4:	e0bffc17 	ldw	r2,-16(fp)
  8004c8:	10c00815 	stw	r3,32(r2)
    
    // Track where we are in the scroll.
    if(scroll->text_scroll_started == 0) {
  8004cc:	e0bffc17 	ldw	r2,-16(fp)
  8004d0:	10800a03 	ldbu	r2,40(r2)
  8004d4:	10803fcc 	andi	r2,r2,255
  8004d8:	1080201c 	xori	r2,r2,128
  8004dc:	10bfe004 	addi	r2,r2,-128
  8004e0:	1004c03a 	cmpne	r2,r2,zero
  8004e4:	1000061e 	bne	r2,zero,800500 <vid_scroll_string+0xbc>
      scroll->text_scroll_index = 0;
  8004e8:	e0bffc17 	ldw	r2,-16(fp)
  8004ec:	10000915 	stw	zero,36(r2)
      scroll->text_scroll_started = 1;
  8004f0:	e0fffc17 	ldw	r3,-16(fp)
  8004f4:	00800044 	movi	r2,1
  8004f8:	18800a05 	stb	r2,40(r3)
  8004fc:	00000e06 	br	800538 <vid_scroll_string+0xf4>
    } else if(scroll->text_scroll_index >= scroll->scroll_points)  {
  800500:	e0bffc17 	ldw	r2,-16(fp)
  800504:	10c00917 	ldw	r3,36(r2)
  800508:	e0bffc17 	ldw	r2,-16(fp)
  80050c:	10800d17 	ldw	r2,52(r2)
  800510:	18800316 	blt	r3,r2,800520 <vid_scroll_string+0xdc>
      scroll->text_scroll_started = 0;
  800514:	e0bffc17 	ldw	r2,-16(fp)
  800518:	10000a05 	stb	zero,40(r2)
  80051c:	00000606 	br	800538 <vid_scroll_string+0xf4>
    } else {
      scroll->text_scroll_index += pixels_to_move_by;
  800520:	e0bffc17 	ldw	r2,-16(fp)
  800524:	10c00917 	ldw	r3,36(r2)
  800528:	e0bff207 	ldb	r2,-56(fp)
  80052c:	1887883a 	add	r3,r3,r2
  800530:	e0bffc17 	ldw	r2,-16(fp)
  800534:	10c00915 	stw	r3,36(r2)
    }
    
    //Find out where we start
    if (scroll->text_scroll_index < scroll->window_width) {
  800538:	e0bffc17 	ldw	r2,-16(fp)
  80053c:	10c00917 	ldw	r3,36(r2)
  800540:	e0bffc17 	ldw	r2,-16(fp)
  800544:	10800b17 	ldw	r2,44(r2)
  800548:	18800a0e 	bge	r3,r2,800574 <vid_scroll_string+0x130>
      x_start = scroll->hbegin + scroll->window_width - scroll->text_scroll_index;
  80054c:	e0bffc17 	ldw	r2,-16(fp)
  800550:	10c00017 	ldw	r3,0(r2)
  800554:	e0bffc17 	ldw	r2,-16(fp)
  800558:	10800b17 	ldw	r2,44(r2)
  80055c:	1887883a 	add	r3,r3,r2
  800560:	e0bffc17 	ldw	r2,-16(fp)
  800564:	10800917 	ldw	r2,36(r2)
  800568:	1885c83a 	sub	r2,r3,r2
  80056c:	e0bffb15 	stw	r2,-20(fp)
  800570:	00000306 	br	800580 <vid_scroll_string+0x13c>
    } else {
      x_start = scroll->hbegin;
  800574:	e0bffc17 	ldw	r2,-16(fp)
  800578:	10800017 	ldw	r2,0(r2)
  80057c:	e0bffb15 	stw	r2,-20(fp)
    }
    //Find out where we end
    if (scroll->string_points > scroll->text_scroll_index) {
  800580:	e0bffc17 	ldw	r2,-16(fp)
  800584:	10c00e17 	ldw	r3,56(r2)
  800588:	e0bffc17 	ldw	r2,-16(fp)
  80058c:	10800917 	ldw	r2,36(r2)
  800590:	10c0040e 	bge	r2,r3,8005a4 <vid_scroll_string+0x160>
      x_end = scroll->hend;
  800594:	e0bffc17 	ldw	r2,-16(fp)
  800598:	10800217 	ldw	r2,8(r2)
  80059c:	e0bffa15 	stw	r2,-24(fp)
  8005a0:	00000906 	br	8005c8 <vid_scroll_string+0x184>
    } else {
      x_end = (scroll->hend - scroll->text_scroll_index + scroll->string_points);
  8005a4:	e0bffc17 	ldw	r2,-16(fp)
  8005a8:	10c00217 	ldw	r3,8(r2)
  8005ac:	e0bffc17 	ldw	r2,-16(fp)
  8005b0:	10800917 	ldw	r2,36(r2)
  8005b4:	1887c83a 	sub	r3,r3,r2
  8005b8:	e0bffc17 	ldw	r2,-16(fp)
  8005bc:	10800e17 	ldw	r2,56(r2)
  8005c0:	1885883a 	add	r2,r3,r2
  8005c4:	e0bffa15 	stw	r2,-24(fp)
    }

    // Write the string segment a column (x) at a time
    for(x_index = x_start; x_index < x_end; x_index++) {
  8005c8:	e0bffb17 	ldw	r2,-20(fp)
  8005cc:	e0bff915 	stw	r2,-28(fp)
  8005d0:	00007006 	br	800794 <vid_scroll_string+0x350>
      // Find the x index we're at within the string
      // If first part of string hasnt yet reached left side of scroll window
      if (scroll->text_scroll_index < scroll->window_width) {
  8005d4:	e0bffc17 	ldw	r2,-16(fp)
  8005d8:	10c00917 	ldw	r3,36(r2)
  8005dc:	e0bffc17 	ldw	r2,-16(fp)
  8005e0:	10800b17 	ldw	r2,44(r2)
  8005e4:	1880050e 	bge	r3,r2,8005fc <vid_scroll_string+0x1b8>
        string_x_index = (x_index - x_start);
  8005e8:	e0bff917 	ldw	r2,-28(fp)
  8005ec:	e0fffb17 	ldw	r3,-20(fp)
  8005f0:	10c5c83a 	sub	r2,r2,r3
  8005f4:	e0bff815 	stw	r2,-32(fp)
  8005f8:	00000a06 	br	800624 <vid_scroll_string+0x1e0>
      } else {
        string_x_index = scroll->text_scroll_index - scroll->window_width + x_index - x_start;
  8005fc:	e0bffc17 	ldw	r2,-16(fp)
  800600:	10c00917 	ldw	r3,36(r2)
  800604:	e0bffc17 	ldw	r2,-16(fp)
  800608:	10800b17 	ldw	r2,44(r2)
  80060c:	1887c83a 	sub	r3,r3,r2
  800610:	e0bff917 	ldw	r2,-28(fp)
  800614:	1887883a 	add	r3,r3,r2
  800618:	e0bffb17 	ldw	r2,-20(fp)
  80061c:	1885c83a 	sub	r2,r3,r2
  800620:	e0bff815 	stw	r2,-32(fp)
      }
      //Find the character we're supposed to be writing
      string_char_index = (string_x_index / 8);
  800624:	e0bff817 	ldw	r2,-32(fp)
  800628:	e0bffe15 	stw	r2,-8(fp)
  80062c:	e0fffe17 	ldw	r3,-8(fp)
  800630:	1804403a 	cmpge	r2,r3,zero
  800634:	1000031e 	bne	r2,zero,800644 <vid_scroll_string+0x200>
  800638:	e0bffe17 	ldw	r2,-8(fp)
  80063c:	108001c4 	addi	r2,r2,7
  800640:	e0bffe15 	stw	r2,-8(fp)
  800644:	e0fffe17 	ldw	r3,-8(fp)
  800648:	1805d0fa 	srai	r2,r3,3
  80064c:	e0bff715 	stw	r2,-36(fp)
      character = scroll->string[string_char_index];
  800650:	e0bffc17 	ldw	r2,-16(fp)
  800654:	10c00517 	ldw	r3,20(r2)
  800658:	e0bff717 	ldw	r2,-36(fp)
  80065c:	1885883a 	add	r2,r3,r2
  800660:	10800003 	ldbu	r2,0(r2)
  800664:	e0bff445 	stb	r2,-47(fp)
      char_column = (string_x_index % 8);
  800668:	e0fff817 	ldw	r3,-32(fp)
  80066c:	00a00034 	movhi	r2,32768
  800670:	108001c4 	addi	r2,r2,7
  800674:	1886703a 	and	r3,r3,r2
  800678:	e0ffff15 	stw	r3,-4(fp)
  80067c:	e0ffff17 	ldw	r3,-4(fp)
  800680:	1804403a 	cmpge	r2,r3,zero
  800684:	10000a1e 	bne	r2,zero,8006b0 <vid_scroll_string+0x26c>
  800688:	e0bfff17 	ldw	r2,-4(fp)
  80068c:	10bfffc4 	addi	r2,r2,-1
  800690:	e0bfff15 	stw	r2,-4(fp)
  800694:	00bffe04 	movi	r2,-8
  800698:	e0ffff17 	ldw	r3,-4(fp)
  80069c:	1886b03a 	or	r3,r3,r2
  8006a0:	e0ffff15 	stw	r3,-4(fp)
  8006a4:	e0bfff17 	ldw	r2,-4(fp)
  8006a8:	10800044 	addi	r2,r2,1
  8006ac:	e0bfff15 	stw	r2,-4(fp)
  8006b0:	e0ffff17 	ldw	r3,-4(fp)
  8006b4:	e0fff515 	stw	r3,-44(fp)
      column_mask = (((unsigned int)0x80) >> char_column);
  8006b8:	00c02004 	movi	r3,128
  8006bc:	e0bff517 	ldw	r2,-44(fp)
  8006c0:	1884d83a 	srl	r2,r3,r2
  8006c4:	e0bff405 	stb	r2,-48(fp)
      font_char_ptr = (scroll->font + ((character - 0x20) * FONT_10PT_ROW));
  8006c8:	e0bffc17 	ldw	r2,-16(fp)
  8006cc:	10c00617 	ldw	r3,24(r2)
  8006d0:	e0bff447 	ldb	r2,-47(fp)
  8006d4:	108002e4 	muli	r2,r2,11
  8006d8:	1885883a 	add	r2,r3,r2
  8006dc:	10bfa804 	addi	r2,r2,-352
  8006e0:	e0bff315 	stw	r2,-52(fp)
      //We have all the data now, so let's write a column
      for(char_row = 0; char_row < 11; char_row++) {
  8006e4:	e03ff615 	stw	zero,-40(fp)
  8006e8:	00002406 	br	80077c <vid_scroll_string+0x338>
        // If the font table says this pixel is on, then set it to the foreground color
        if (*(font_char_ptr + char_row) & column_mask) {
  8006ec:	e0bff617 	ldw	r2,-40(fp)
  8006f0:	1007883a 	mov	r3,r2
  8006f4:	e0bff317 	ldw	r2,-52(fp)
  8006f8:	1885883a 	add	r2,r3,r2
  8006fc:	10c00003 	ldbu	r3,0(r2)
  800700:	e0bff403 	ldbu	r2,-48(fp)
  800704:	1884703a 	and	r2,r3,r2
  800708:	10803fcc 	andi	r2,r2,255
  80070c:	1080201c 	xori	r2,r2,128
  800710:	10bfe004 	addi	r2,r2,-128
  800714:	1005003a 	cmpeq	r2,r2,zero
  800718:	10000b1e 	bne	r2,zero,800748 <vid_scroll_string+0x304>
          vid_set_pixel(x_index, scroll->vbegin + char_row, scroll->f_color, frame_buffer); 
  80071c:	e0bffc17 	ldw	r2,-16(fp)
  800720:	10c00117 	ldw	r3,4(r2)
  800724:	e0bff617 	ldw	r2,-40(fp)
  800728:	188b883a 	add	r5,r3,r2
  80072c:	e0bffc17 	ldw	r2,-16(fp)
  800730:	10800317 	ldw	r2,12(r2)
  800734:	100d883a 	mov	r6,r2
  800738:	e13ff917 	ldw	r4,-28(fp)
  80073c:	e1fffd17 	ldw	r7,-12(fp)
  800740:	0800c500 	call	800c50 <vid_set_pixel>
  800744:	00000a06 	br	800770 <vid_scroll_string+0x32c>
        // Otherwise, set it to the background color.
        } else {
          vid_set_pixel(x_index, scroll->vbegin + char_row, scroll->b_color, frame_buffer); //background color
  800748:	e0bffc17 	ldw	r2,-16(fp)
  80074c:	10c00117 	ldw	r3,4(r2)
  800750:	e0bff617 	ldw	r2,-40(fp)
  800754:	188b883a 	add	r5,r3,r2
  800758:	e0bffc17 	ldw	r2,-16(fp)
  80075c:	10800417 	ldw	r2,16(r2)
  800760:	100d883a 	mov	r6,r2
  800764:	e13ff917 	ldw	r4,-28(fp)
  800768:	e1fffd17 	ldw	r7,-12(fp)
  80076c:	0800c500 	call	800c50 <vid_set_pixel>
  800770:	e0bff617 	ldw	r2,-40(fp)
  800774:	10800044 	addi	r2,r2,1
  800778:	e0bff615 	stw	r2,-40(fp)
  80077c:	e0bff617 	ldw	r2,-40(fp)
  800780:	108002d0 	cmplti	r2,r2,11
  800784:	103fd91e 	bne	r2,zero,8006ec <vid_scroll_string+0x2a8>
  800788:	e0bff917 	ldw	r2,-28(fp)
  80078c:	10800044 	addi	r2,r2,1
  800790:	e0bff915 	stw	r2,-28(fp)
  800794:	e0fff917 	ldw	r3,-28(fp)
  800798:	e0bffa17 	ldw	r2,-24(fp)
  80079c:	18bf8d16 	blt	r3,r2,8005d4 <vid_scroll_string+0x190>
        }
      }
    }
    // Erase the leftover column (x) of the last string we wrote.
    vid_draw_line(x_end, scroll->vbegin, x_end, scroll->vbegin + 10, 1, scroll->b_color, frame_buffer);
  8007a0:	e0bffc17 	ldw	r2,-16(fp)
  8007a4:	11400117 	ldw	r5,4(r2)
  8007a8:	e0bffc17 	ldw	r2,-16(fp)
  8007ac:	10800117 	ldw	r2,4(r2)
  8007b0:	11c00284 	addi	r7,r2,10
  8007b4:	e0bffc17 	ldw	r2,-16(fp)
  8007b8:	10c00417 	ldw	r3,16(r2)
  8007bc:	00800044 	movi	r2,1
  8007c0:	d8800015 	stw	r2,0(sp)
  8007c4:	d8c00115 	stw	r3,4(sp)
  8007c8:	e0bffd17 	ldw	r2,-12(fp)
  8007cc:	d8800215 	stw	r2,8(sp)
  8007d0:	e13ffa17 	ldw	r4,-24(fp)
  8007d4:	e1bffa17 	ldw	r6,-24(fp)
  8007d8:	08002000 	call	800200 <vid_draw_line>
    // Log what time we moved the scroll.
  }
  return(0);
  8007dc:	0005883a 	mov	r2,zero
}
  8007e0:	e037883a 	mov	sp,fp
  8007e4:	dfc00317 	ldw	ra,12(sp)
  8007e8:	df000217 	ldw	fp,8(sp)
  8007ec:	dc400117 	ldw	r17,4(sp)
  8007f0:	dc000017 	ldw	r16,0(sp)
  8007f4:	dec00404 	addi	sp,sp,16
  8007f8:	f800283a 	ret

008007fc <vid_move_block>:


/******************************************************************
*  Function: vid_move_block
*
*  Purpose: Moves a block around the screen, backfilling with 
*           the backfill_color parameter.
*
******************************************************************/

int vid_move_block(int xbegin, int ybegin, int xend, int yend, int x_distance, int y_distance, int backfill_color, display_frame_buffer_struct* frame_buffer)
{
  8007fc:	defff504 	addi	sp,sp,-44
  800800:	dfc00a15 	stw	ra,40(sp)
  800804:	df000915 	stw	fp,36(sp)
  800808:	df000904 	addi	fp,sp,36
  80080c:	e13ffc15 	stw	r4,-16(fp)
  800810:	e17ffd15 	stw	r5,-12(fp)
  800814:	e1bffe15 	stw	r6,-8(fp)
  800818:	e1ffff15 	stw	r7,-4(fp)
  int read_x, read_y, write_x, write_y;
  short temp_pixel;
  
  if(x_distance <= 0 && y_distance <= 0) {  
  80081c:	e0800217 	ldw	r2,8(fp)
  800820:	10800048 	cmpgei	r2,r2,1
  800824:	1000361e 	bne	r2,zero,800900 <vid_move_block+0x104>
  800828:	e0800317 	ldw	r2,12(fp)
  80082c:	10800048 	cmpgei	r2,r2,1
  800830:	1000331e 	bne	r2,zero,800900 <vid_move_block+0x104>
    //Move by rows because they are contiguous in memory (could help speed if in SDRAM)
    for (read_y = ybegin; read_y < yend; read_y++) {
  800834:	e0bffd17 	ldw	r2,-12(fp)
  800838:	e0bffa15 	stw	r2,-24(fp)
  80083c:	00002d06 	br	8008f4 <vid_move_block+0xf8>
      write_y = read_y + y_distance;
  800840:	e0fffa17 	ldw	r3,-24(fp)
  800844:	e0800317 	ldw	r2,12(fp)
  800848:	1885883a 	add	r2,r3,r2
  80084c:	e0bff815 	stw	r2,-32(fp)
      for(read_x = xbegin; read_x < xend; read_x++) {
  800850:	e0bffc17 	ldw	r2,-16(fp)
  800854:	e0bffb15 	stw	r2,-20(fp)
  800858:	00002006 	br	8008dc <vid_move_block+0xe0>
        write_x = read_x + x_distance;
  80085c:	e0fffb17 	ldw	r3,-20(fp)
  800860:	e0800217 	ldw	r2,8(fp)
  800864:	1885883a 	add	r2,r3,r2
  800868:	e0bff915 	stw	r2,-28(fp)
        temp_pixel = vid_get_pixel(read_x, read_y, frame_buffer);
  80086c:	e13ffb17 	ldw	r4,-20(fp)
  800870:	e17ffa17 	ldw	r5,-24(fp)
  800874:	e1800517 	ldw	r6,20(fp)
  800878:	0800dbc0 	call	800dbc <vid_get_pixel>
  80087c:	e0bff70d 	sth	r2,-36(fp)
        vid_set_pixel(write_x, write_y, temp_pixel, frame_buffer);
  800880:	e1bff70f 	ldh	r6,-36(fp)
  800884:	e13ff917 	ldw	r4,-28(fp)
  800888:	e17ff817 	ldw	r5,-32(fp)
  80088c:	e1c00517 	ldw	r7,20(fp)
  800890:	0800c500 	call	800c50 <vid_set_pixel>
        if(read_x >= xend + x_distance || read_y >= yend + y_distance) 
  800894:	e0fffe17 	ldw	r3,-8(fp)
  800898:	e0800217 	ldw	r2,8(fp)
  80089c:	1887883a 	add	r3,r3,r2
  8008a0:	e0bffb17 	ldw	r2,-20(fp)
  8008a4:	10c0050e 	bge	r2,r3,8008bc <vid_move_block+0xc0>
  8008a8:	e0ffff17 	ldw	r3,-4(fp)
  8008ac:	e0800317 	ldw	r2,12(fp)
  8008b0:	1887883a 	add	r3,r3,r2
  8008b4:	e0bffa17 	ldw	r2,-24(fp)
  8008b8:	10c00516 	blt	r2,r3,8008d0 <vid_move_block+0xd4>
        {
	        vid_set_pixel(read_x, read_y, backfill_color, frame_buffer);
  8008bc:	e1800417 	ldw	r6,16(fp)
  8008c0:	e13ffb17 	ldw	r4,-20(fp)
  8008c4:	e17ffa17 	ldw	r5,-24(fp)
  8008c8:	e1c00517 	ldw	r7,20(fp)
  8008cc:	0800c500 	call	800c50 <vid_set_pixel>
  8008d0:	e0bffb17 	ldw	r2,-20(fp)
  8008d4:	10800044 	addi	r2,r2,1
  8008d8:	e0bffb15 	stw	r2,-20(fp)
  8008dc:	e0fffb17 	ldw	r3,-20(fp)
  8008e0:	e0bffe17 	ldw	r2,-8(fp)
  8008e4:	18bfdd16 	blt	r3,r2,80085c <vid_move_block+0x60>
  8008e8:	e0bffa17 	ldw	r2,-24(fp)
  8008ec:	10800044 	addi	r2,r2,1
  8008f0:	e0bffa15 	stw	r2,-24(fp)
  8008f4:	e0fffa17 	ldw	r3,-24(fp)
  8008f8:	e0bfff17 	ldw	r2,-4(fp)
  8008fc:	18bfd016 	blt	r3,r2,800840 <vid_move_block+0x44>
        }
      }
    }
  }
  return (0);
  800900:	0005883a 	mov	r2,zero
}
  800904:	e037883a 	mov	sp,fp
  800908:	dfc00117 	ldw	ra,4(sp)
  80090c:	df000017 	ldw	fp,0(sp)
  800910:	dec00204 	addi	sp,sp,8
  800914:	f800283a 	ret

00800918 <vid_print_string>:

/******************************************************************
*  Function: vid_print_string
*
*  Purpose: Prints a string to the specified location of the screen
*           using the specified font and color.
*           Calls vid_print_char
*
******************************************************************/
int vid_print_string(int horiz_offset, int vert_offset, int color, char *font, display_frame_buffer_struct* frame_buffer, char string[])
{
  800918:	defff604 	addi	sp,sp,-40
  80091c:	dfc00915 	stw	ra,36(sp)
  800920:	df000815 	stw	fp,32(sp)
  800924:	df000804 	addi	fp,sp,32
  800928:	e13ffc15 	stw	r4,-16(fp)
  80092c:	e17ffd15 	stw	r5,-12(fp)
  800930:	e1bffe15 	stw	r6,-8(fp)
  800934:	e1ffff15 	stw	r7,-4(fp)
  int i = 0;
  800938:	e03ffb15 	stw	zero,-20(fp)
  int original_horiz_offset;

  original_horiz_offset = horiz_offset;
  80093c:	e0bffc17 	ldw	r2,-16(fp)
  800940:	e0bffa15 	stw	r2,-24(fp)

  // Print until we hit the '\0' char.
  while (string[i]) {
  800944:	00002906 	br	8009ec <vid_print_string+0xd4>
    //Handle newline char here.
    if (string[i] == '\n') {
  800948:	e0bffb17 	ldw	r2,-20(fp)
  80094c:	1007883a 	mov	r3,r2
  800950:	e0800317 	ldw	r2,12(fp)
  800954:	1885883a 	add	r2,r3,r2
  800958:	10800003 	ldbu	r2,0(r2)
  80095c:	10803fcc 	andi	r2,r2,255
  800960:	1080201c 	xori	r2,r2,128
  800964:	10bfe004 	addi	r2,r2,-128
  800968:	10800298 	cmpnei	r2,r2,10
  80096c:	1000091e 	bne	r2,zero,800994 <vid_print_string+0x7c>
      horiz_offset = original_horiz_offset;
  800970:	e0bffa17 	ldw	r2,-24(fp)
  800974:	e0bffc15 	stw	r2,-16(fp)
      vert_offset += 12;
  800978:	e0bffd17 	ldw	r2,-12(fp)
  80097c:	10800304 	addi	r2,r2,12
  800980:	e0bffd15 	stw	r2,-12(fp)
      i++;
  800984:	e0bffb17 	ldw	r2,-20(fp)
  800988:	10800044 	addi	r2,r2,1
  80098c:	e0bffb15 	stw	r2,-20(fp)
      continue;
  800990:	00001606 	br	8009ec <vid_print_string+0xd4>
    }
    // Lay down that character and increment our offsets.
    vid_print_char (horiz_offset, vert_offset, color, string[i], font, frame_buffer);
  800994:	e0bffb17 	ldw	r2,-20(fp)
  800998:	1007883a 	mov	r3,r2
  80099c:	e0800317 	ldw	r2,12(fp)
  8009a0:	1885883a 	add	r2,r3,r2
  8009a4:	10800003 	ldbu	r2,0(r2)
  8009a8:	11c03fcc 	andi	r7,r2,255
  8009ac:	39c0201c 	xori	r7,r7,128
  8009b0:	39ffe004 	addi	r7,r7,-128
  8009b4:	e0bfff17 	ldw	r2,-4(fp)
  8009b8:	d8800015 	stw	r2,0(sp)
  8009bc:	e0800217 	ldw	r2,8(fp)
  8009c0:	d8800115 	stw	r2,4(sp)
  8009c4:	e13ffc17 	ldw	r4,-16(fp)
  8009c8:	e17ffd17 	ldw	r5,-12(fp)
  8009cc:	e1bffe17 	ldw	r6,-8(fp)
  8009d0:	0800b680 	call	800b68 <vid_print_char>
    i++;
  8009d4:	e0bffb17 	ldw	r2,-20(fp)
  8009d8:	10800044 	addi	r2,r2,1
  8009dc:	e0bffb15 	stw	r2,-20(fp)
    horiz_offset += 8;
  8009e0:	e0bffc17 	ldw	r2,-16(fp)
  8009e4:	10800204 	addi	r2,r2,8
  8009e8:	e0bffc15 	stw	r2,-16(fp)
  8009ec:	e0bffb17 	ldw	r2,-20(fp)
  8009f0:	1007883a 	mov	r3,r2
  8009f4:	e0800317 	ldw	r2,12(fp)
  8009f8:	1885883a 	add	r2,r3,r2
  8009fc:	10800003 	ldbu	r2,0(r2)
  800a00:	10803fcc 	andi	r2,r2,255
  800a04:	1080201c 	xori	r2,r2,128
  800a08:	10bfe004 	addi	r2,r2,-128
  800a0c:	1004c03a 	cmpne	r2,r2,zero
  800a10:	103fcd1e 	bne	r2,zero,800948 <vid_print_string+0x30>
  }
  return (0);
  800a14:	0005883a 	mov	r2,zero
}
  800a18:	e037883a 	mov	sp,fp
  800a1c:	dfc00117 	ldw	ra,4(sp)
  800a20:	df000017 	ldw	fp,0(sp)
  800a24:	dec00204 	addi	sp,sp,8
  800a28:	f800283a 	ret

00800a2c <vid_draw_box>:

/******************************************************************
*  Function: vid_draw_box
*
*  Purpose: Draws a box on the screen with the specified corner
*  points.  The fill parameter tells the function whether or not
*  to fill in the box.  1 = fill, 0 = do not fill.
*
******************************************************************/
int vid_draw_box (int horiz_start, int vert_start, int horiz_end, int vert_end, int color, int fill, display_frame_buffer_struct* frame_buffer)
{
  800a2c:	defff704 	addi	sp,sp,-36
  800a30:	dfc00815 	stw	ra,32(sp)
  800a34:	df000715 	stw	fp,28(sp)
  800a38:	df000704 	addi	fp,sp,28
  800a3c:	e13ffc15 	stw	r4,-16(fp)
  800a40:	e17ffd15 	stw	r5,-12(fp)
  800a44:	e1bffe15 	stw	r6,-8(fp)
  800a48:	e1ffff15 	stw	r7,-4(fp)

  // If we want to fill in our box
  if (fill) {
  800a4c:	e0800317 	ldw	r2,12(fp)
  800a50:	1005003a 	cmpeq	r2,r2,zero
  800a54:	10000a1e 	bne	r2,zero,800a80 <vid_draw_box+0x54>
     vid_paint_block (horiz_start, vert_start, horiz_end, vert_end, color, frame_buffer);
  800a58:	e0800217 	ldw	r2,8(fp)
  800a5c:	d8800015 	stw	r2,0(sp)
  800a60:	e0800417 	ldw	r2,16(fp)
  800a64:	d8800115 	stw	r2,4(sp)
  800a68:	e13ffc17 	ldw	r4,-16(fp)
  800a6c:	e17ffd17 	ldw	r5,-12(fp)
  800a70:	e1bffe17 	ldw	r6,-8(fp)
  800a74:	e1ffff17 	ldw	r7,-4(fp)
  800a78:	0800e280 	call	800e28 <vid_paint_block>
  800a7c:	00003406 	br	800b50 <vid_draw_box+0x124>
  // If we're not filling in the box, just draw four lines.
  } else {
    vid_draw_line(horiz_start, vert_start, horiz_start, vert_end-1, 1, color, frame_buffer);
  800a80:	e0bfff17 	ldw	r2,-4(fp)
  800a84:	11ffffc4 	addi	r7,r2,-1
  800a88:	00800044 	movi	r2,1
  800a8c:	d8800015 	stw	r2,0(sp)
  800a90:	e0800217 	ldw	r2,8(fp)
  800a94:	d8800115 	stw	r2,4(sp)
  800a98:	e0800417 	ldw	r2,16(fp)
  800a9c:	d8800215 	stw	r2,8(sp)
  800aa0:	e13ffc17 	ldw	r4,-16(fp)
  800aa4:	e17ffd17 	ldw	r5,-12(fp)
  800aa8:	e1bffc17 	ldw	r6,-16(fp)
  800aac:	08002000 	call	800200 <vid_draw_line>
    vid_draw_line(horiz_end-1, vert_start, horiz_end-1, vert_end-1, 1, color, frame_buffer);
  800ab0:	e0bffe17 	ldw	r2,-8(fp)
  800ab4:	113fffc4 	addi	r4,r2,-1
  800ab8:	e0bffe17 	ldw	r2,-8(fp)
  800abc:	11bfffc4 	addi	r6,r2,-1
  800ac0:	e0bfff17 	ldw	r2,-4(fp)
  800ac4:	11ffffc4 	addi	r7,r2,-1
  800ac8:	00800044 	movi	r2,1
  800acc:	d8800015 	stw	r2,0(sp)
  800ad0:	e0800217 	ldw	r2,8(fp)
  800ad4:	d8800115 	stw	r2,4(sp)
  800ad8:	e0800417 	ldw	r2,16(fp)
  800adc:	d8800215 	stw	r2,8(sp)
  800ae0:	e17ffd17 	ldw	r5,-12(fp)
  800ae4:	08002000 	call	800200 <vid_draw_line>
    vid_draw_line(horiz_start, vert_start, horiz_end-1, vert_start, 1, color, frame_buffer);
  800ae8:	e0bffe17 	ldw	r2,-8(fp)
  800aec:	11bfffc4 	addi	r6,r2,-1
  800af0:	00800044 	movi	r2,1
  800af4:	d8800015 	stw	r2,0(sp)
  800af8:	e0800217 	ldw	r2,8(fp)
  800afc:	d8800115 	stw	r2,4(sp)
  800b00:	e0800417 	ldw	r2,16(fp)
  800b04:	d8800215 	stw	r2,8(sp)
  800b08:	e13ffc17 	ldw	r4,-16(fp)
  800b0c:	e17ffd17 	ldw	r5,-12(fp)
  800b10:	e1fffd17 	ldw	r7,-12(fp)
  800b14:	08002000 	call	800200 <vid_draw_line>
    vid_draw_line(horiz_start, vert_end-1, horiz_end-1, vert_end-1, 1, color, frame_buffer);
  800b18:	e0bfff17 	ldw	r2,-4(fp)
  800b1c:	117fffc4 	addi	r5,r2,-1
  800b20:	e0bffe17 	ldw	r2,-8(fp)
  800b24:	11bfffc4 	addi	r6,r2,-1
  800b28:	e0bfff17 	ldw	r2,-4(fp)
  800b2c:	11ffffc4 	addi	r7,r2,-1
  800b30:	00800044 	movi	r2,1
  800b34:	d8800015 	stw	r2,0(sp)
  800b38:	e0800217 	ldw	r2,8(fp)
  800b3c:	d8800115 	stw	r2,4(sp)
  800b40:	e0800417 	ldw	r2,16(fp)
  800b44:	d8800215 	stw	r2,8(sp)
  800b48:	e13ffc17 	ldw	r4,-16(fp)
  800b4c:	08002000 	call	800200 <vid_draw_line>
  }

  return (0);
  800b50:	0005883a 	mov	r2,zero
}
  800b54:	e037883a 	mov	sp,fp
  800b58:	dfc00117 	ldw	ra,4(sp)
  800b5c:	df000017 	ldw	fp,0(sp)
  800b60:	dec00204 	addi	sp,sp,8
  800b64:	f800283a 	ret

00800b68 <vid_print_char>:


/******************************************************************
*  Function: vid_print_char
*
*  Purpose: Prints a character to the specified location of the
*           screen using the specified font and color.
*
******************************************************************/

int vid_print_char (int horiz_offset, int vert_offset, int color, char character, char *font, display_frame_buffer_struct* frame_buffer)
{
  800b68:	defff704 	addi	sp,sp,-36
  800b6c:	dfc00815 	stw	ra,32(sp)
  800b70:	df000715 	stw	fp,28(sp)
  800b74:	df000704 	addi	fp,sp,28
  800b78:	e13ffc15 	stw	r4,-16(fp)
  800b7c:	e17ffd15 	stw	r5,-12(fp)
  800b80:	e1bffe15 	stw	r6,-8(fp)
  800b84:	e1ffff05 	stb	r7,-4(fp)

  int i, j;
  
  char temp_char, char_row;

  // Convert the ASCII value to an array offset
  temp_char = (character - 0x20);
  800b88:	e0bfff03 	ldbu	r2,-4(fp)
  800b8c:	10bff804 	addi	r2,r2,-32
  800b90:	e0bff945 	stb	r2,-27(fp)

  //Each character is 8 pixels wide and 11 tall.
  for(i = 0; i < 11; i++) {
  800b94:	e03ffb15 	stw	zero,-20(fp)
  800b98:	00002406 	br	800c2c <vid_print_char+0xc4>
      char_row = *(font + (temp_char * FONT_10PT_ROW) + i);
  800b9c:	e0bff947 	ldb	r2,-27(fp)
  800ba0:	108002e4 	muli	r2,r2,11
  800ba4:	1007883a 	mov	r3,r2
  800ba8:	e0800217 	ldw	r2,8(fp)
  800bac:	1887883a 	add	r3,r3,r2
  800bb0:	e0bffb17 	ldw	r2,-20(fp)
  800bb4:	1885883a 	add	r2,r3,r2
  800bb8:	10800003 	ldbu	r2,0(r2)
  800bbc:	e0bff905 	stb	r2,-28(fp)
    for (j = 0; j < 8; j++) {
  800bc0:	e03ffa15 	stw	zero,-24(fp)
  800bc4:	00001306 	br	800c14 <vid_print_char+0xac>
      //If the font table says the pixel in this location is on for this character, then set it.
      if (char_row & (((unsigned char)0x80) >> j)) {
  800bc8:	e13ff907 	ldb	r4,-28(fp)
  800bcc:	00c02004 	movi	r3,128
  800bd0:	e0bffa17 	ldw	r2,-24(fp)
  800bd4:	1885d83a 	sra	r2,r3,r2
  800bd8:	2084703a 	and	r2,r4,r2
  800bdc:	1005003a 	cmpeq	r2,r2,zero
  800be0:	1000091e 	bne	r2,zero,800c08 <vid_print_char+0xa0>
        vid_set_pixel((horiz_offset + j), (vert_offset + i), color, frame_buffer); // plot the pixel
  800be4:	e0fffc17 	ldw	r3,-16(fp)
  800be8:	e0bffa17 	ldw	r2,-24(fp)
  800bec:	1889883a 	add	r4,r3,r2
  800bf0:	e0fffd17 	ldw	r3,-12(fp)
  800bf4:	e0bffb17 	ldw	r2,-20(fp)
  800bf8:	188b883a 	add	r5,r3,r2
  800bfc:	e1bffe17 	ldw	r6,-8(fp)
  800c00:	e1c00317 	ldw	r7,12(fp)
  800c04:	0800c500 	call	800c50 <vid_set_pixel>
  800c08:	e0bffa17 	ldw	r2,-24(fp)
  800c0c:	10800044 	addi	r2,r2,1
  800c10:	e0bffa15 	stw	r2,-24(fp)
  800c14:	e0bffa17 	ldw	r2,-24(fp)
  800c18:	10800210 	cmplti	r2,r2,8
  800c1c:	103fea1e 	bne	r2,zero,800bc8 <vid_print_char+0x60>
  800c20:	e0bffb17 	ldw	r2,-20(fp)
  800c24:	10800044 	addi	r2,r2,1
  800c28:	e0bffb15 	stw	r2,-20(fp)
  800c2c:	e0bffb17 	ldw	r2,-20(fp)
  800c30:	108002d0 	cmplti	r2,r2,11
  800c34:	103fd91e 	bne	r2,zero,800b9c <vid_print_char+0x34>
      }
    }
  }
  return(0);
  800c38:	0005883a 	mov	r2,zero
}
  800c3c:	e037883a 	mov	sp,fp
  800c40:	dfc00117 	ldw	ra,4(sp)
  800c44:	df000017 	ldw	fp,0(sp)
  800c48:	dec00204 	addi	sp,sp,8
  800c4c:	f800283a 	ret

00800c50 <vid_set_pixel>:


/******************************************************************
*  Function: vid_set_pixel
*
*  Purpose: Sets the specified pixel to the specified color.
*           Sets one pixel although frame buffer consists of
*           two-pixel words.  Therefore this function is not
*           efficient when painting large areas of the screen.
*
******************************************************************/

void vid_set_pixel(int horiz, int vert, unsigned int color, display_frame_buffer_struct* frame_buffer)
{
  800c50:	defffa04 	addi	sp,sp,-24
  800c54:	df000515 	stw	fp,20(sp)
  800c58:	df000504 	addi	fp,sp,20
  800c5c:	e13ffc15 	stw	r4,-16(fp)
  800c60:	e17ffd15 	stw	r5,-12(fp)
  800c64:	e1bffe15 	stw	r6,-8(fp)
  800c68:	e1ffff15 	stw	r7,-4(fp)
  int addr;
  
  if( frame_buffer->color_depth == 32 )
  800c6c:	e0bfff17 	ldw	r2,-4(fp)
  800c70:	10800417 	ldw	r2,16(r2)
  800c74:	10800818 	cmpnei	r2,r2,32
  800c78:	1000111e 	bne	r2,zero,800cc0 <vid_set_pixel+0x70>
  {
  	addr = ( ( (int)(frame_buffer->frame1) )+ (vert * (frame_buffer->width * 4)) + horiz * 4);
  800c7c:	e0bfff17 	ldw	r2,-4(fp)
  800c80:	10800117 	ldw	r2,4(r2)
  800c84:	1009883a 	mov	r4,r2
  800c88:	e0bfff17 	ldw	r2,-4(fp)
  800c8c:	10c00217 	ldw	r3,8(r2)
  800c90:	e0bffd17 	ldw	r2,-12(fp)
  800c94:	1887383a 	mul	r3,r3,r2
  800c98:	e0bffc17 	ldw	r2,-16(fp)
  800c9c:	1885883a 	add	r2,r3,r2
  800ca0:	1085883a 	add	r2,r2,r2
  800ca4:	1085883a 	add	r2,r2,r2
  800ca8:	2085883a 	add	r2,r4,r2
  800cac:	e0bffb15 	stw	r2,-20(fp)
		IOWR_32DIRECT( addr, 0, (unsigned int)(color));
  800cb0:	e0bffb17 	ldw	r2,-20(fp)
  800cb4:	e0fffe17 	ldw	r3,-8(fp)
  800cb8:	10c00035 	stwio	r3,0(r2)
  800cbc:	00003b06 	br	800dac <vid_set_pixel+0x15c>
  }
  
  else if( frame_buffer->color_depth == 24 )
  800cc0:	e0bfff17 	ldw	r2,-4(fp)
  800cc4:	10800417 	ldw	r2,16(r2)
  800cc8:	10800618 	cmpnei	r2,r2,24
  800ccc:	1000241e 	bne	r2,zero,800d60 <vid_set_pixel+0x110>
  {
  	addr = ( ( (int)(frame_buffer->frame1) )+ (vert * (frame_buffer->width * 3)) + horiz * 3);
  800cd0:	e0bfff17 	ldw	r2,-4(fp)
  800cd4:	10800117 	ldw	r2,4(r2)
  800cd8:	1009883a 	mov	r4,r2
  800cdc:	e0bfff17 	ldw	r2,-4(fp)
  800ce0:	10c00217 	ldw	r3,8(r2)
  800ce4:	e0bffd17 	ldw	r2,-12(fp)
  800ce8:	1887383a 	mul	r3,r3,r2
  800cec:	e0bffc17 	ldw	r2,-16(fp)
  800cf0:	1887883a 	add	r3,r3,r2
  800cf4:	1805883a 	mov	r2,r3
  800cf8:	1085883a 	add	r2,r2,r2
  800cfc:	10c5883a 	add	r2,r2,r3
  800d00:	2085883a 	add	r2,r4,r2
  800d04:	e0bffb15 	stw	r2,-20(fp)
		IOWR_8DIRECT( addr, 0, (unsigned char)(color));
  800d08:	e13ffb17 	ldw	r4,-20(fp)
  800d0c:	e0bffe17 	ldw	r2,-8(fp)
  800d10:	10c03fcc 	andi	r3,r2,255
  800d14:	2005883a 	mov	r2,r4
  800d18:	10c00025 	stbio	r3,0(r2)
 		IOWR_8DIRECT( addr+1, 0, (unsigned char)(color >> 8));
  800d1c:	e0bffb17 	ldw	r2,-20(fp)
  800d20:	10800044 	addi	r2,r2,1
  800d24:	1009883a 	mov	r4,r2
  800d28:	e0bffe17 	ldw	r2,-8(fp)
  800d2c:	1004d23a 	srli	r2,r2,8
  800d30:	10c03fcc 	andi	r3,r2,255
  800d34:	2005883a 	mov	r2,r4
  800d38:	10c00025 	stbio	r3,0(r2)
    IOWR_8DIRECT( addr+2, 0, (unsigned char)(color >> 16));
  800d3c:	e0bffb17 	ldw	r2,-20(fp)
  800d40:	10800084 	addi	r2,r2,2
  800d44:	1009883a 	mov	r4,r2
  800d48:	e0bffe17 	ldw	r2,-8(fp)
  800d4c:	1004d43a 	srli	r2,r2,16
  800d50:	10c03fcc 	andi	r3,r2,255
  800d54:	2005883a 	mov	r2,r4
  800d58:	10c00025 	stbio	r3,0(r2)
  800d5c:	00001306 	br	800dac <vid_set_pixel+0x15c>
  }
  
  else if( frame_buffer->color_depth == 16 )
  800d60:	e0bfff17 	ldw	r2,-4(fp)
  800d64:	10800417 	ldw	r2,16(r2)
  800d68:	10800418 	cmpnei	r2,r2,16
  800d6c:	10000f1e 	bne	r2,zero,800dac <vid_set_pixel+0x15c>
  {
  	addr = ( ( (int)(frame_buffer->frame1) )+ (vert * (frame_buffer->width * 2)) + horiz * 2);
  800d70:	e0bfff17 	ldw	r2,-4(fp)
  800d74:	10800117 	ldw	r2,4(r2)
  800d78:	1009883a 	mov	r4,r2
  800d7c:	e0bfff17 	ldw	r2,-4(fp)
  800d80:	10c00217 	ldw	r3,8(r2)
  800d84:	e0bffd17 	ldw	r2,-12(fp)
  800d88:	1887383a 	mul	r3,r3,r2
  800d8c:	e0bffc17 	ldw	r2,-16(fp)
  800d90:	1885883a 	add	r2,r3,r2
  800d94:	1085883a 	add	r2,r2,r2
  800d98:	2085883a 	add	r2,r4,r2
  800d9c:	e0bffb15 	stw	r2,-20(fp)
  	IOWR_16DIRECT( addr, 0, (int)(color));
  800da0:	e0bffb17 	ldw	r2,-20(fp)
  800da4:	e0fffe17 	ldw	r3,-8(fp)
  800da8:	10c0002d 	sthio	r3,0(r2)
	}


}
  800dac:	e037883a 	mov	sp,fp
  800db0:	df000017 	ldw	fp,0(sp)
  800db4:	dec00104 	addi	sp,sp,4
  800db8:	f800283a 	ret

00800dbc <vid_get_pixel>:

/******************************************************************
*  Function: vid_get_pixel
*
*  Purpose: Reads the color of the pixel at the given coordinates
*
******************************************************************/

short vid_get_pixel(int horiz, int vert, display_frame_buffer_struct* frame_buffer)
{
  800dbc:	defffb04 	addi	sp,sp,-20
  800dc0:	df000415 	stw	fp,16(sp)
  800dc4:	df000404 	addi	fp,sp,16
  800dc8:	e13ffd15 	stw	r4,-12(fp)
  800dcc:	e17ffe15 	stw	r5,-8(fp)
  800dd0:	e1bfff15 	stw	r6,-4(fp)
  int addr;
  
  addr = ( ( (int)(frame_buffer->frame1) )+ (vert * (frame_buffer->width * 2)) + horiz * 2);
  800dd4:	e0bfff17 	ldw	r2,-4(fp)
  800dd8:	10800117 	ldw	r2,4(r2)
  800ddc:	1009883a 	mov	r4,r2
  800de0:	e0bfff17 	ldw	r2,-4(fp)
  800de4:	10c00217 	ldw	r3,8(r2)
  800de8:	e0bffe17 	ldw	r2,-8(fp)
  800dec:	1887383a 	mul	r3,r3,r2
  800df0:	e0bffd17 	ldw	r2,-12(fp)
  800df4:	1885883a 	add	r2,r3,r2
  800df8:	1085883a 	add	r2,r2,r2
  800dfc:	2085883a 	add	r2,r4,r2
  800e00:	e0bffc15 	stw	r2,-16(fp)
  return(IORD_16DIRECT(addr, 0));
  800e04:	e0bffc17 	ldw	r2,-16(fp)
  800e08:	1080002b 	ldhuio	r2,0(r2)
  800e0c:	10bfffcc 	andi	r2,r2,65535
  800e10:	10a0001c 	xori	r2,r2,32768
  800e14:	10a00004 	addi	r2,r2,-32768

}
  800e18:	e037883a 	mov	sp,fp
  800e1c:	df000017 	ldw	fp,0(sp)
  800e20:	dec00104 	addi	sp,sp,4
  800e24:	f800283a 	ret

00800e28 <vid_paint_block>:


/******************************************************************
*  Function: vid_paint_block
*
*  Purpose: Paints a block of the screen the specified color.
*           Note: works with two pixels at a time to maintain high
*           bandwidth.  Therefore, corner points must be even
*           numbered coordinates.  Use vid_draw_solid_box() for
*           areas with odd-numbered corner points.
*           The color parameter must contain two pixel's worth
*           (32 bits).
*
******************************************************************/
void vid_paint_block (int Hstart,int Vstart, int Hend, int Vend, int color, display_frame_buffer_struct* frame_buffer)
{
  800e28:	defff404 	addi	sp,sp,-48
  800e2c:	dfc00b15 	stw	ra,44(sp)
  800e30:	df000a15 	stw	fp,40(sp)
  800e34:	df000a04 	addi	fp,sp,40
  800e38:	e13ffb15 	stw	r4,-20(fp)
  800e3c:	e17ffc15 	stw	r5,-16(fp)
  800e40:	e1bffd15 	stw	r6,-12(fp)
  800e44:	e1fffe15 	stw	r7,-8(fp)

  int i;
  int addr;
  int bytes_per_line, bytes_per_pixel;
  char* line;
  
  bytes_per_pixel = (frame_buffer->color_depth / 8);
  800e48:	e0800317 	ldw	r2,12(fp)
  800e4c:	10800417 	ldw	r2,16(r2)
  800e50:	e0bfff15 	stw	r2,-4(fp)
  800e54:	e0ffff17 	ldw	r3,-4(fp)
  800e58:	1804403a 	cmpge	r2,r3,zero
  800e5c:	1000031e 	bne	r2,zero,800e6c <vid_paint_block+0x44>
  800e60:	e0bfff17 	ldw	r2,-4(fp)
  800e64:	108001c4 	addi	r2,r2,7
  800e68:	e0bfff15 	stw	r2,-4(fp)
  800e6c:	e0ffff17 	ldw	r3,-4(fp)
  800e70:	1805d0fa 	srai	r2,r3,3
  800e74:	e0bff715 	stw	r2,-36(fp)
  bytes_per_line = ((Hend - Hstart) * bytes_per_pixel);
  800e78:	e0fffd17 	ldw	r3,-12(fp)
  800e7c:	e0bffb17 	ldw	r2,-20(fp)
  800e80:	1887c83a 	sub	r3,r3,r2
  800e84:	e0bff717 	ldw	r2,-36(fp)
  800e88:	1885383a 	mul	r2,r3,r2
  800e8c:	e0bff815 	stw	r2,-32(fp)

  line = malloc(bytes_per_line + 12);
  800e90:	e0bff817 	ldw	r2,-32(fp)
  800e94:	10800304 	addi	r2,r2,12
  800e98:	1009883a 	mov	r4,r2
  800e9c:	080415c0 	call	80415c <malloc>
  800ea0:	e0bff615 	stw	r2,-40(fp)

	if(frame_buffer->color_depth == 16)
  800ea4:	e0800317 	ldw	r2,12(fp)
  800ea8:	10800417 	ldw	r2,16(r2)
  800eac:	10800418 	cmpnei	r2,r2,16
  800eb0:	1000171e 	bne	r2,zero,800f10 <vid_paint_block+0xe8>
	{
    for (i = 0; i < bytes_per_line; i+=2) 
  800eb4:	e03ffa15 	stw	zero,-24(fp)
  800eb8:	00001106 	br	800f00 <vid_paint_block+0xd8>
    {
      *(line + i) = (unsigned char)color;
  800ebc:	e0bffa17 	ldw	r2,-24(fp)
  800ec0:	1007883a 	mov	r3,r2
  800ec4:	e0bff617 	ldw	r2,-40(fp)
  800ec8:	1887883a 	add	r3,r3,r2
  800ecc:	e0800217 	ldw	r2,8(fp)
  800ed0:	18800005 	stb	r2,0(r3)
      *(line + i + 1) = (unsigned char)(color >> 8);
  800ed4:	e0bffa17 	ldw	r2,-24(fp)
  800ed8:	1007883a 	mov	r3,r2
  800edc:	e0bff617 	ldw	r2,-40(fp)
  800ee0:	1885883a 	add	r2,r3,r2
  800ee4:	10c00044 	addi	r3,r2,1
  800ee8:	e0800217 	ldw	r2,8(fp)
  800eec:	1005d23a 	srai	r2,r2,8
  800ef0:	18800005 	stb	r2,0(r3)
  800ef4:	e0bffa17 	ldw	r2,-24(fp)
  800ef8:	10800084 	addi	r2,r2,2
  800efc:	e0bffa15 	stw	r2,-24(fp)
  800f00:	e0fffa17 	ldw	r3,-24(fp)
  800f04:	e0bff817 	ldw	r2,-32(fp)
  800f08:	18bfec16 	blt	r3,r2,800ebc <vid_paint_block+0x94>
  800f0c:	00003606 	br	800fe8 <vid_paint_block+0x1c0>
    }
  }
  else if(frame_buffer->color_depth == 24)
  800f10:	e0800317 	ldw	r2,12(fp)
  800f14:	10800417 	ldw	r2,16(r2)
  800f18:	10800618 	cmpnei	r2,r2,24
  800f1c:	10001f1e 	bne	r2,zero,800f9c <vid_paint_block+0x174>
  { 
    for (i = 0; i < bytes_per_line; i+=3) 
  800f20:	e03ffa15 	stw	zero,-24(fp)
  800f24:	00001906 	br	800f8c <vid_paint_block+0x164>
    {
      *(line + i) = (unsigned char)color;
  800f28:	e0bffa17 	ldw	r2,-24(fp)
  800f2c:	1007883a 	mov	r3,r2
  800f30:	e0bff617 	ldw	r2,-40(fp)
  800f34:	1887883a 	add	r3,r3,r2
  800f38:	e0800217 	ldw	r2,8(fp)
  800f3c:	18800005 	stb	r2,0(r3)
      *(line + i + 1) = (unsigned char)(color >> 8);
  800f40:	e0bffa17 	ldw	r2,-24(fp)
  800f44:	1007883a 	mov	r3,r2
  800f48:	e0bff617 	ldw	r2,-40(fp)
  800f4c:	1885883a 	add	r2,r3,r2
  800f50:	10c00044 	addi	r3,r2,1
  800f54:	e0800217 	ldw	r2,8(fp)
  800f58:	1005d23a 	srai	r2,r2,8
  800f5c:	18800005 	stb	r2,0(r3)
      *(line + i + 2) = (unsigned char)(color >> 16);
  800f60:	e0bffa17 	ldw	r2,-24(fp)
  800f64:	1007883a 	mov	r3,r2
  800f68:	e0bff617 	ldw	r2,-40(fp)
  800f6c:	1885883a 	add	r2,r3,r2
  800f70:	10c00084 	addi	r3,r2,2
  800f74:	e0800217 	ldw	r2,8(fp)
  800f78:	1005d43a 	srai	r2,r2,16
  800f7c:	18800005 	stb	r2,0(r3)
  800f80:	e0bffa17 	ldw	r2,-24(fp)
  800f84:	108000c4 	addi	r2,r2,3
  800f88:	e0bffa15 	stw	r2,-24(fp)
  800f8c:	e0fffa17 	ldw	r3,-24(fp)
  800f90:	e0bff817 	ldw	r2,-32(fp)
  800f94:	18bfe416 	blt	r3,r2,800f28 <vid_paint_block+0x100>
  800f98:	00001306 	br	800fe8 <vid_paint_block+0x1c0>
    }
  }
  else if(frame_buffer->color_depth == 32)
  800f9c:	e0800317 	ldw	r2,12(fp)
  800fa0:	10800417 	ldw	r2,16(r2)
  800fa4:	10800818 	cmpnei	r2,r2,32
  800fa8:	10000f1e 	bne	r2,zero,800fe8 <vid_paint_block+0x1c0>
  { 
    for (i = 0; i < bytes_per_line; i+=4) 
  800fac:	e03ffa15 	stw	zero,-24(fp)
  800fb0:	00000a06 	br	800fdc <vid_paint_block+0x1b4>
    {
      // Does the right hand side of this assignment determine the size?
      *(int*)(line + i) = (unsigned int)color;
  800fb4:	e0bffa17 	ldw	r2,-24(fp)
  800fb8:	1007883a 	mov	r3,r2
  800fbc:	e0bff617 	ldw	r2,-40(fp)
  800fc0:	1885883a 	add	r2,r3,r2
  800fc4:	1007883a 	mov	r3,r2
  800fc8:	e0800217 	ldw	r2,8(fp)
  800fcc:	18800015 	stw	r2,0(r3)
  800fd0:	e0bffa17 	ldw	r2,-24(fp)
  800fd4:	10800104 	addi	r2,r2,4
  800fd8:	e0bffa15 	stw	r2,-24(fp)
  800fdc:	e0fffa17 	ldw	r3,-24(fp)
  800fe0:	e0bff817 	ldw	r2,-32(fp)
  800fe4:	18bff316 	blt	r3,r2,800fb4 <vid_paint_block+0x18c>
    }
  }
  
  /* Initial Address */
  addr = (int)(frame_buffer->frame1) + ((Vstart * (frame_buffer->width * bytes_per_pixel)) + (Hstart * bytes_per_pixel));
  800fe8:	e0800317 	ldw	r2,12(fp)
  800fec:	10800117 	ldw	r2,4(r2)
  800ff0:	100b883a 	mov	r5,r2
  800ff4:	e0800317 	ldw	r2,12(fp)
  800ff8:	10c00217 	ldw	r3,8(r2)
  800ffc:	e0bff717 	ldw	r2,-36(fp)
  801000:	1887383a 	mul	r3,r3,r2
  801004:	e0bffc17 	ldw	r2,-16(fp)
  801008:	1889383a 	mul	r4,r3,r2
  80100c:	e0fffb17 	ldw	r3,-20(fp)
  801010:	e0bff717 	ldw	r2,-36(fp)
  801014:	1885383a 	mul	r2,r3,r2
  801018:	2085883a 	add	r2,r4,r2
  80101c:	2885883a 	add	r2,r5,r2
  801020:	e0bff915 	stw	r2,-28(fp)
  
  for (i = Vstart; i < Vend; i++)
  801024:	e0bffc17 	ldw	r2,-16(fp)
  801028:	e0bffa15 	stw	r2,-24(fp)
  80102c:	00001006 	br	801070 <vid_paint_block+0x248>
  {
    memcpy( (void*)addr, line, bytes_per_line );
  801030:	e0fff917 	ldw	r3,-28(fp)
  801034:	e1bff817 	ldw	r6,-32(fp)
  801038:	e0bff617 	ldw	r2,-40(fp)
  80103c:	1809883a 	mov	r4,r3
  801040:	100b883a 	mov	r5,r2
  801044:	08048b00 	call	8048b0 <memcpy>
    addr += (frame_buffer->width * bytes_per_pixel);
  801048:	e0800317 	ldw	r2,12(fp)
  80104c:	10c00217 	ldw	r3,8(r2)
  801050:	e0bff717 	ldw	r2,-36(fp)
  801054:	1887383a 	mul	r3,r3,r2
  801058:	e0bff917 	ldw	r2,-28(fp)
  80105c:	10c5883a 	add	r2,r2,r3
  801060:	e0bff915 	stw	r2,-28(fp)
  801064:	e0bffa17 	ldw	r2,-24(fp)
  801068:	10800044 	addi	r2,r2,1
  80106c:	e0bffa15 	stw	r2,-24(fp)
  801070:	e0fffa17 	ldw	r3,-24(fp)
  801074:	e0bffe17 	ldw	r2,-8(fp)
  801078:	18bfed16 	blt	r3,r2,801030 <vid_paint_block+0x208>
  }
  free (line);
  80107c:	e13ff617 	ldw	r4,-40(fp)
  801080:	08041480 	call	804148 <free>
}
  801084:	e037883a 	mov	sp,fp
  801088:	dfc00117 	ldw	ra,4(sp)
  80108c:	df000017 	ldw	fp,0(sp)
  801090:	dec00204 	addi	sp,sp,8
  801094:	f800283a 	ret

00801098 <vid_draw_horiz_line>:


/******************************************************************
*  Function: vid_draw_horiz_line
*
*  Purpose: Draws a horizontal line on the screen quickly.
*           Good for filling stuff.
*
******************************************************************/
void vid_draw_horiz_line (short Hstart, short Hend, int V, int color, display_frame_buffer_struct* frame_buffer)
{
  801098:	defff504 	addi	sp,sp,-44
  80109c:	dfc00a15 	stw	ra,40(sp)
  8010a0:	df000915 	stw	fp,36(sp)
  8010a4:	df000904 	addi	fp,sp,36
  8010a8:	e1bffe15 	stw	r6,-8(fp)
  8010ac:	e1ffff15 	stw	r7,-4(fp)
  8010b0:	e13ffc0d 	sth	r4,-16(fp)
  8010b4:	e17ffd0d 	sth	r5,-12(fp)

  int i;
  int addr;
  int bytes_per_line;

  char *fast_buffer = malloc(1024 * 3);
  8010b8:	01030004 	movi	r4,3072
  8010bc:	080415c0 	call	80415c <malloc>
  8010c0:	e0bff815 	stw	r2,-32(fp)

  if( Hstart > Hend )
  8010c4:	e0fffc0f 	ldh	r3,-16(fp)
  8010c8:	e0bffd0f 	ldh	r2,-12(fp)
  8010cc:	10c0060e 	bge	r2,r3,8010e8 <vid_draw_horiz_line+0x50>
  {
    short temp = Hstart;
  8010d0:	e0bffc0b 	ldhu	r2,-16(fp)
  8010d4:	e0bff70d 	sth	r2,-36(fp)
    Hstart = Hend;
  8010d8:	e0bffd0b 	ldhu	r2,-12(fp)
  8010dc:	e0bffc0d 	sth	r2,-16(fp)
    Hend = temp;
  8010e0:	e0bff70b 	ldhu	r2,-36(fp)
  8010e4:	e0bffd0d 	sth	r2,-12(fp)
  }
  
  if(frame_buffer->color_depth == 32)
  8010e8:	e0800217 	ldw	r2,8(fp)
  8010ec:	10800417 	ldw	r2,16(r2)
  8010f0:	10800818 	cmpnei	r2,r2,32
  8010f4:	1000281e 	bne	r2,zero,801198 <vid_draw_horiz_line+0x100>
  { 
    addr = (int)(frame_buffer->frame1) + ((V * (frame_buffer->width * 4)) + (Hstart * 4));
  8010f8:	e0800217 	ldw	r2,8(fp)
  8010fc:	10800117 	ldw	r2,4(r2)
  801100:	1009883a 	mov	r4,r2
  801104:	e0800217 	ldw	r2,8(fp)
  801108:	10c00217 	ldw	r3,8(r2)
  80110c:	e0bffe17 	ldw	r2,-8(fp)
  801110:	1887383a 	mul	r3,r3,r2
  801114:	e0bffc0f 	ldh	r2,-16(fp)
  801118:	1885883a 	add	r2,r3,r2
  80111c:	1085883a 	add	r2,r2,r2
  801120:	1085883a 	add	r2,r2,r2
  801124:	2085883a 	add	r2,r4,r2
  801128:	e0bffa15 	stw	r2,-24(fp)
    bytes_per_line = ((Hend - Hstart) * 4);
  80112c:	e0fffd0f 	ldh	r3,-12(fp)
  801130:	e0bffc0f 	ldh	r2,-16(fp)
  801134:	1885c83a 	sub	r2,r3,r2
  801138:	1085883a 	add	r2,r2,r2
  80113c:	1085883a 	add	r2,r2,r2
  801140:	e0bff915 	stw	r2,-28(fp)
    for (i = 0; i < bytes_per_line; i+=4) 
  801144:	e03ffb15 	stw	zero,-20(fp)
  801148:	00000a06 	br	801174 <vid_draw_horiz_line+0xdc>
    {
      // Does the right hand side of this assignment determine the size?
      *(int*)(fast_buffer + i) = (unsigned int)color;
  80114c:	e0bffb17 	ldw	r2,-20(fp)
  801150:	1007883a 	mov	r3,r2
  801154:	e0bff817 	ldw	r2,-32(fp)
  801158:	1885883a 	add	r2,r3,r2
  80115c:	1007883a 	mov	r3,r2
  801160:	e0bfff17 	ldw	r2,-4(fp)
  801164:	18800015 	stw	r2,0(r3)
  801168:	e0bffb17 	ldw	r2,-20(fp)
  80116c:	10800104 	addi	r2,r2,4
  801170:	e0bffb15 	stw	r2,-20(fp)
  801174:	e0fffb17 	ldw	r3,-20(fp)
  801178:	e0bff917 	ldw	r2,-28(fp)
  80117c:	18bff316 	blt	r3,r2,80114c <vid_draw_horiz_line+0xb4>
    }
    memcpy( (void*)addr, fast_buffer, bytes_per_line );
  801180:	e0fffa17 	ldw	r3,-24(fp)
  801184:	e1bff917 	ldw	r6,-28(fp)
  801188:	e0bff817 	ldw	r2,-32(fp)
  80118c:	1809883a 	mov	r4,r3
  801190:	100b883a 	mov	r5,r2
  801194:	08048b00 	call	8048b0 <memcpy>
  }
  if(frame_buffer->color_depth == 24)
  801198:	e0800217 	ldw	r2,8(fp)
  80119c:	10800417 	ldw	r2,16(r2)
  8011a0:	10800618 	cmpnei	r2,r2,24
  8011a4:	10003a1e 	bne	r2,zero,801290 <vid_draw_horiz_line+0x1f8>
  { 
    addr = (int)(frame_buffer->frame1) + ((V * (frame_buffer->width * 3)) + (Hstart * 3));
  8011a8:	e0800217 	ldw	r2,8(fp)
  8011ac:	10800117 	ldw	r2,4(r2)
  8011b0:	1009883a 	mov	r4,r2
  8011b4:	e0800217 	ldw	r2,8(fp)
  8011b8:	10c00217 	ldw	r3,8(r2)
  8011bc:	e0bffe17 	ldw	r2,-8(fp)
  8011c0:	1887383a 	mul	r3,r3,r2
  8011c4:	e0bffc0f 	ldh	r2,-16(fp)
  8011c8:	1887883a 	add	r3,r3,r2
  8011cc:	1805883a 	mov	r2,r3
  8011d0:	1085883a 	add	r2,r2,r2
  8011d4:	10c5883a 	add	r2,r2,r3
  8011d8:	2085883a 	add	r2,r4,r2
  8011dc:	e0bffa15 	stw	r2,-24(fp)
    bytes_per_line = ((Hend - Hstart) * 3);
  8011e0:	e0fffd0f 	ldh	r3,-12(fp)
  8011e4:	e0bffc0f 	ldh	r2,-16(fp)
  8011e8:	1887c83a 	sub	r3,r3,r2
  8011ec:	1805883a 	mov	r2,r3
  8011f0:	1085883a 	add	r2,r2,r2
  8011f4:	10c5883a 	add	r2,r2,r3
  8011f8:	e0bff915 	stw	r2,-28(fp)
    for (i = 0; i < bytes_per_line; i+=3) 
  8011fc:	e03ffb15 	stw	zero,-20(fp)
  801200:	00001906 	br	801268 <vid_draw_horiz_line+0x1d0>
    {
      *(fast_buffer + i) = (unsigned char)color;
  801204:	e0bffb17 	ldw	r2,-20(fp)
  801208:	1007883a 	mov	r3,r2
  80120c:	e0bff817 	ldw	r2,-32(fp)
  801210:	1887883a 	add	r3,r3,r2
  801214:	e0bfff17 	ldw	r2,-4(fp)
  801218:	18800005 	stb	r2,0(r3)
      *(fast_buffer + i + 1) = (unsigned char)(color >> 8);
  80121c:	e0bffb17 	ldw	r2,-20(fp)
  801220:	1007883a 	mov	r3,r2
  801224:	e0bff817 	ldw	r2,-32(fp)
  801228:	1885883a 	add	r2,r3,r2
  80122c:	10c00044 	addi	r3,r2,1
  801230:	e0bfff17 	ldw	r2,-4(fp)
  801234:	1005d23a 	srai	r2,r2,8
  801238:	18800005 	stb	r2,0(r3)
      *(fast_buffer + i + 2) = (unsigned char)(color >> 16);
  80123c:	e0bffb17 	ldw	r2,-20(fp)
  801240:	1007883a 	mov	r3,r2
  801244:	e0bff817 	ldw	r2,-32(fp)
  801248:	1885883a 	add	r2,r3,r2
  80124c:	10c00084 	addi	r3,r2,2
  801250:	e0bfff17 	ldw	r2,-4(fp)
  801254:	1005d43a 	srai	r2,r2,16
  801258:	18800005 	stb	r2,0(r3)
  80125c:	e0bffb17 	ldw	r2,-20(fp)
  801260:	108000c4 	addi	r2,r2,3
  801264:	e0bffb15 	stw	r2,-20(fp)
  801268:	e0fffb17 	ldw	r3,-20(fp)
  80126c:	e0bff917 	ldw	r2,-28(fp)
  801270:	18bfe416 	blt	r3,r2,801204 <vid_draw_horiz_line+0x16c>
    }
    memcpy( (void*)addr, fast_buffer, bytes_per_line );
  801274:	e0fffa17 	ldw	r3,-24(fp)
  801278:	e1bff917 	ldw	r6,-28(fp)
  80127c:	e0bff817 	ldw	r2,-32(fp)
  801280:	1809883a 	mov	r4,r3
  801284:	100b883a 	mov	r5,r2
  801288:	08048b00 	call	8048b0 <memcpy>
  80128c:	00003106 	br	801354 <vid_draw_horiz_line+0x2bc>
  }
  else if(frame_buffer->color_depth == 16)
  801290:	e0800217 	ldw	r2,8(fp)
  801294:	10800417 	ldw	r2,16(r2)
  801298:	10800418 	cmpnei	r2,r2,16
  80129c:	10002d1e 	bne	r2,zero,801354 <vid_draw_horiz_line+0x2bc>
  {
    addr = (int)(frame_buffer->frame1) + ((V * (frame_buffer->width * 2)) + (Hstart * 2));
  8012a0:	e0800217 	ldw	r2,8(fp)
  8012a4:	10800117 	ldw	r2,4(r2)
  8012a8:	1009883a 	mov	r4,r2
  8012ac:	e0800217 	ldw	r2,8(fp)
  8012b0:	10c00217 	ldw	r3,8(r2)
  8012b4:	e0bffe17 	ldw	r2,-8(fp)
  8012b8:	1887383a 	mul	r3,r3,r2
  8012bc:	e0bffc0f 	ldh	r2,-16(fp)
  8012c0:	1885883a 	add	r2,r3,r2
  8012c4:	1085883a 	add	r2,r2,r2
  8012c8:	2085883a 	add	r2,r4,r2
  8012cc:	e0bffa15 	stw	r2,-24(fp)
    bytes_per_line = ((Hend - Hstart) * 2);
  8012d0:	e0fffd0f 	ldh	r3,-12(fp)
  8012d4:	e0bffc0f 	ldh	r2,-16(fp)
  8012d8:	1885c83a 	sub	r2,r3,r2
  8012dc:	1085883a 	add	r2,r2,r2
  8012e0:	e0bff915 	stw	r2,-28(fp)
    for (i = 0; i < bytes_per_line; i+=2) 
  8012e4:	e03ffb15 	stw	zero,-20(fp)
  8012e8:	00001106 	br	801330 <vid_draw_horiz_line+0x298>
    {
      *(fast_buffer + i) = (unsigned char)color;
  8012ec:	e0bffb17 	ldw	r2,-20(fp)
  8012f0:	1007883a 	mov	r3,r2
  8012f4:	e0bff817 	ldw	r2,-32(fp)
  8012f8:	1887883a 	add	r3,r3,r2
  8012fc:	e0bfff17 	ldw	r2,-4(fp)
  801300:	18800005 	stb	r2,0(r3)
      *(fast_buffer + i + 1) = (unsigned char)(color >> 8);
  801304:	e0bffb17 	ldw	r2,-20(fp)
  801308:	1007883a 	mov	r3,r2
  80130c:	e0bff817 	ldw	r2,-32(fp)
  801310:	1885883a 	add	r2,r3,r2
  801314:	10c00044 	addi	r3,r2,1
  801318:	e0bfff17 	ldw	r2,-4(fp)
  80131c:	1005d23a 	srai	r2,r2,8
  801320:	18800005 	stb	r2,0(r3)
  801324:	e0bffb17 	ldw	r2,-20(fp)
  801328:	10800084 	addi	r2,r2,2
  80132c:	e0bffb15 	stw	r2,-20(fp)
  801330:	e0fffb17 	ldw	r3,-20(fp)
  801334:	e0bff917 	ldw	r2,-28(fp)
  801338:	18bfec16 	blt	r3,r2,8012ec <vid_draw_horiz_line+0x254>
    }
    memcpy( (void*)addr, fast_buffer, bytes_per_line );
  80133c:	e0fffa17 	ldw	r3,-24(fp)
  801340:	e1bff917 	ldw	r6,-28(fp)
  801344:	e0bff817 	ldw	r2,-32(fp)
  801348:	1809883a 	mov	r4,r3
  80134c:	100b883a 	mov	r5,r2
  801350:	08048b00 	call	8048b0 <memcpy>
  }
  free(fast_buffer);
  801354:	e13ff817 	ldw	r4,-32(fp)
  801358:	08041480 	call	804148 <free>
}
  80135c:	e037883a 	mov	sp,fp
  801360:	dfc00117 	ldw	ra,4(sp)
  801364:	df000017 	ldw	fp,0(sp)
  801368:	dec00204 	addi	sp,sp,8
  80136c:	f800283a 	ret

00801370 <vid_merge_colors>:



/******************************************************************
*  Function: vid_merge_colors
*
*  Purpose: Takes 5-bit color values for each red, green, and blue
*           and merges them into one 16-bit color value.
*
******************************************************************/
int vid_merge_colors(int red, int green, int blue)
{
  801370:	defffc04 	addi	sp,sp,-16
  801374:	df000315 	stw	fp,12(sp)
  801378:	df000304 	addi	fp,sp,12
  80137c:	e13ffd15 	stw	r4,-12(fp)
  801380:	e17ffe15 	stw	r5,-8(fp)
  801384:	e1bfff15 	stw	r6,-4(fp)
  // Green actually has 6-bits, but we'll make it's LSB 1 to be consistent.
  return ((blue) | (((green << 1) | 0x1) << 5) | (red << 11));
  801388:	e0bffe17 	ldw	r2,-8(fp)
  80138c:	1085883a 	add	r2,r2,r2
  801390:	10800054 	ori	r2,r2,1
  801394:	1006917a 	slli	r3,r2,5
  801398:	e0bfff17 	ldw	r2,-4(fp)
  80139c:	1886b03a 	or	r3,r3,r2
  8013a0:	e0bffd17 	ldw	r2,-12(fp)
  8013a4:	100492fa 	slli	r2,r2,11
  8013a8:	1884b03a 	or	r2,r3,r2
}
  8013ac:	e037883a 	mov	sp,fp
  8013b0:	df000017 	ldw	fp,0(sp)
  8013b4:	dec00104 	addi	sp,sp,4
  8013b8:	f800283a 	ret

008013bc <vid_color_convert24_16>:

/******************************************************************
*  Function: vid_color_convert24_16
*
*  Purpose: Takes a pointer to a 24-bit (3-byte) 24-bit RGB color 
*           sample and converts it to 16-bits, displayable by the 
*           VGA controller in 16-bit mode
*
******************************************************************/
unsigned short vid_color_convert24_16(char* color24)
{
  8013bc:	defffc04 	addi	sp,sp,-16
  8013c0:	df000315 	stw	fp,12(sp)
  8013c4:	df000304 	addi	fp,sp,12
  8013c8:	e13fff15 	stw	r4,-4(fp)
	unsigned char red, green, blue;
	unsigned short output;
	
	red = *(color24 + 0) & 0xF8;
  8013cc:	e0bfff17 	ldw	r2,-4(fp)
  8013d0:	10800003 	ldbu	r2,0(r2)
  8013d4:	1007883a 	mov	r3,r2
  8013d8:	00bffe04 	movi	r2,-8
  8013dc:	1884703a 	and	r2,r3,r2
  8013e0:	e0bffe05 	stb	r2,-8(fp)
	green = *(color24 + 1) & 0xFC; // green is actualy 6 bits
  8013e4:	e0bfff17 	ldw	r2,-4(fp)
  8013e8:	10800044 	addi	r2,r2,1
  8013ec:	10800003 	ldbu	r2,0(r2)
  8013f0:	1007883a 	mov	r3,r2
  8013f4:	00bfff04 	movi	r2,-4
  8013f8:	1884703a 	and	r2,r3,r2
  8013fc:	e0bffdc5 	stb	r2,-9(fp)
	blue = *(color24 + 2) & 0xF8;
  801400:	e0bfff17 	ldw	r2,-4(fp)
  801404:	10800084 	addi	r2,r2,2
  801408:	10800003 	ldbu	r2,0(r2)
  80140c:	1007883a 	mov	r3,r2
  801410:	00bffe04 	movi	r2,-8
  801414:	1884703a 	and	r2,r3,r2
  801418:	e0bffd85 	stb	r2,-10(fp)

	output = ((blue >> 3) | (green << 3) | (red << 8));  
  80141c:	e0bffd83 	ldbu	r2,-10(fp)
  801420:	1004d0fa 	srli	r2,r2,3
  801424:	10c03fcc 	andi	r3,r2,255
  801428:	e0bffdc3 	ldbu	r2,-9(fp)
  80142c:	100490fa 	slli	r2,r2,3
  801430:	1884b03a 	or	r2,r3,r2
  801434:	1007883a 	mov	r3,r2
  801438:	e0bffe03 	ldbu	r2,-8(fp)
  80143c:	1004923a 	slli	r2,r2,8
  801440:	1884b03a 	or	r2,r3,r2
  801444:	e0bffd0d 	sth	r2,-12(fp)
	return output;
  801448:	e0bffd0b 	ldhu	r2,-12(fp)
}
  80144c:	e037883a 	mov	sp,fp
  801450:	df000017 	ldw	fp,0(sp)
  801454:	dec00104 	addi	sp,sp,4
  801458:	f800283a 	ret

0080145c <vid_color_convert16_24>:


/******************************************************************
*  Function: vid_color_convert24_16
*
*  Purpose: Takes a pointer to a 24-bit (3-byte) 24-bit RGB color 
*           sample and converts it to 16-bits, displayable by the 
*           VGA controller in 16-bit mode
*
******************************************************************/
int vid_color_convert16_24(unsigned short color16, char* color24)
{
  80145c:	defffd04 	addi	sp,sp,-12
  801460:	df000215 	stw	fp,8(sp)
  801464:	df000204 	addi	fp,sp,8
  801468:	e17fff15 	stw	r5,-4(fp)
  80146c:	e13ffe0d 	sth	r4,-8(fp)
	*(color24 + 0) = color16 >> 11;
  801470:	e0bffe0b 	ldhu	r2,-8(fp)
  801474:	1004d2fa 	srli	r2,r2,11
  801478:	1007883a 	mov	r3,r2
  80147c:	e0bfff17 	ldw	r2,-4(fp)
  801480:	10c00005 	stb	r3,0(r2)
	*(color24 + 1) = ((color16 & 0x3E) >> 5);
  801484:	e0bfff17 	ldw	r2,-4(fp)
  801488:	10c00044 	addi	r3,r2,1
  80148c:	e0bffe0b 	ldhu	r2,-8(fp)
  801490:	10800f8c 	andi	r2,r2,62
  801494:	1005d17a 	srai	r2,r2,5
  801498:	18800005 	stb	r2,0(r3)
	*(color24 + 2) = (color16 & 0x1F);
  80149c:	e0bfff17 	ldw	r2,-4(fp)
  8014a0:	10c00084 	addi	r3,r2,2
  8014a4:	e0bffe0b 	ldhu	r2,-8(fp)
  8014a8:	108007cc 	andi	r2,r2,31
  8014ac:	18800005 	stb	r2,0(r3)
	
	return (0);
  8014b0:	0005883a 	mov	r2,zero
}
  8014b4:	e037883a 	mov	sp,fp
  8014b8:	df000017 	ldw	fp,0(sp)
  8014bc:	dec00104 	addi	sp,sp,4
  8014c0:	f800283a 	ret

008014c4 <vid_copy_line_to_frame_buffer>:

/******************************************************************
*  Function: vid_copy_line_to_frame_buffer
*
*  Purpose: Copies a scanline from memory to the frame buffer at
*           the specified coordinates.  Converts color depth if
*           necessary.
*
******************************************************************/
int vid_copy_line_to_frame_buffer( int x, int y, char* buffer, int num_pixels, int source_color_depth, display_frame_buffer_struct* frame_buffer )
{
  8014c4:	defff504 	addi	sp,sp,-44
  8014c8:	dfc00a15 	stw	ra,40(sp)
  8014cc:	df000915 	stw	fp,36(sp)
  8014d0:	df000904 	addi	fp,sp,36
  8014d4:	e13ffc15 	stw	r4,-16(fp)
  8014d8:	e17ffd15 	stw	r5,-12(fp)
  8014dc:	e1bffe15 	stw	r6,-8(fp)
  8014e0:	e1ffff15 	stw	r7,-4(fp)
  unsigned short* temp_line;
  int index_24 = 0;
  8014e4:	e03ffa15 	stw	zero,-24(fp)
  int index_16 = 0;
  8014e8:	e03ff915 	stw	zero,-28(fp)
  unsigned int dest_addr;
  unsigned int bytes_in_line;
  
  dest_addr = (int)(frame_buffer->frame1) + 
  8014ec:	e0800317 	ldw	r2,12(fp)
  8014f0:	10800117 	ldw	r2,4(r2)
  8014f4:	100b883a 	mov	r5,r2
  8014f8:	e0800317 	ldw	r2,12(fp)
  8014fc:	10c00217 	ldw	r3,8(r2)
  801500:	e0800317 	ldw	r2,12(fp)
  801504:	10800517 	ldw	r2,20(r2)
  801508:	1887383a 	mul	r3,r3,r2
  80150c:	e0bffd17 	ldw	r2,-12(fp)
  801510:	1889383a 	mul	r4,r3,r2
  801514:	e0800317 	ldw	r2,12(fp)
  801518:	10c00517 	ldw	r3,20(r2)
  80151c:	e0bffc17 	ldw	r2,-16(fp)
  801520:	1885383a 	mul	r2,r3,r2
  801524:	2085883a 	add	r2,r4,r2
  801528:	2885883a 	add	r2,r5,r2
  80152c:	e0bff815 	stw	r2,-32(fp)
    ((y * (frame_buffer->width * (frame_buffer->bytes_per_pixel))) + 
    (x * (frame_buffer->bytes_per_pixel)));
  
  bytes_in_line = num_pixels * frame_buffer->bytes_per_pixel;
  801530:	e0800317 	ldw	r2,12(fp)
  801534:	10c00517 	ldw	r3,20(r2)
  801538:	e0bfff17 	ldw	r2,-4(fp)
  80153c:	1885383a 	mul	r2,r3,r2
  801540:	e0bff715 	stw	r2,-36(fp)
  
  if(source_color_depth == 24)
  801544:	e0800217 	ldw	r2,8(fp)
  801548:	10800618 	cmpnei	r2,r2,24
  80154c:	10004f1e 	bne	r2,zero,80168c <vid_copy_line_to_frame_buffer+0x1c8>
  {
    if(frame_buffer->color_depth == 16)
  801550:	e0800317 	ldw	r2,12(fp)
  801554:	10800417 	ldw	r2,16(r2)
  801558:	10800418 	cmpnei	r2,r2,16
  80155c:	1000401e 	bne	r2,zero,801660 <vid_copy_line_to_frame_buffer+0x19c>
    {
      temp_line = malloc(bytes_in_line);
  801560:	e13ff717 	ldw	r4,-36(fp)
  801564:	080415c0 	call	80415c <malloc>
  801568:	e0bffb15 	stw	r2,-20(fp)
      while(index_24 < bytes_in_line)
  80156c:	00003006 	br	801630 <vid_copy_line_to_frame_buffer+0x16c>
      {
        *(temp_line + index_16) = vid_color_convert24_16_m((char*)(buffer + index_24));
  801570:	e0bff917 	ldw	r2,-28(fp)
  801574:	1085883a 	add	r2,r2,r2
  801578:	1007883a 	mov	r3,r2
  80157c:	e0bffb17 	ldw	r2,-20(fp)
  801580:	188b883a 	add	r5,r3,r2
  801584:	e0bffa17 	ldw	r2,-24(fp)
  801588:	1007883a 	mov	r3,r2
  80158c:	e0bffe17 	ldw	r2,-8(fp)
  801590:	1885883a 	add	r2,r3,r2
  801594:	10800084 	addi	r2,r2,2
  801598:	10800003 	ldbu	r2,0(r2)
  80159c:	10803fcc 	andi	r2,r2,255
  8015a0:	1080201c 	xori	r2,r2,128
  8015a4:	10bfe004 	addi	r2,r2,-128
  8015a8:	10803e0c 	andi	r2,r2,248
  8015ac:	1005d0fa 	srai	r2,r2,3
  8015b0:	1009883a 	mov	r4,r2
  8015b4:	e0bffa17 	ldw	r2,-24(fp)
  8015b8:	1007883a 	mov	r3,r2
  8015bc:	e0bffe17 	ldw	r2,-8(fp)
  8015c0:	1885883a 	add	r2,r3,r2
  8015c4:	10800044 	addi	r2,r2,1
  8015c8:	10800003 	ldbu	r2,0(r2)
  8015cc:	10803fcc 	andi	r2,r2,255
  8015d0:	1080201c 	xori	r2,r2,128
  8015d4:	10bfe004 	addi	r2,r2,-128
  8015d8:	10803f0c 	andi	r2,r2,252
  8015dc:	100490fa 	slli	r2,r2,3
  8015e0:	2084b03a 	or	r2,r4,r2
  8015e4:	1009883a 	mov	r4,r2
  8015e8:	e0bffa17 	ldw	r2,-24(fp)
  8015ec:	1007883a 	mov	r3,r2
  8015f0:	e0bffe17 	ldw	r2,-8(fp)
  8015f4:	1885883a 	add	r2,r3,r2
  8015f8:	10800003 	ldbu	r2,0(r2)
  8015fc:	10803fcc 	andi	r2,r2,255
  801600:	1080201c 	xori	r2,r2,128
  801604:	10bfe004 	addi	r2,r2,-128
  801608:	10803e0c 	andi	r2,r2,248
  80160c:	1004923a 	slli	r2,r2,8
  801610:	2084b03a 	or	r2,r4,r2
  801614:	2880000d 	sth	r2,0(r5)
        index_16++;
  801618:	e0bff917 	ldw	r2,-28(fp)
  80161c:	10800044 	addi	r2,r2,1
  801620:	e0bff915 	stw	r2,-28(fp)
        index_24+=3;
  801624:	e0bffa17 	ldw	r2,-24(fp)
  801628:	108000c4 	addi	r2,r2,3
  80162c:	e0bffa15 	stw	r2,-24(fp)
  801630:	e0fffa17 	ldw	r3,-24(fp)
  801634:	e0bff717 	ldw	r2,-36(fp)
  801638:	18bfcd36 	bltu	r3,r2,801570 <vid_copy_line_to_frame_buffer+0xac>
      }
      memcpy( (void*)dest_addr, (void*)temp_line, bytes_in_line );
  80163c:	e0bff817 	ldw	r2,-32(fp)
  801640:	e0fffb17 	ldw	r3,-20(fp)
  801644:	1009883a 	mov	r4,r2
  801648:	180b883a 	mov	r5,r3
  80164c:	e1bff717 	ldw	r6,-36(fp)
  801650:	08048b00 	call	8048b0 <memcpy>
      free(temp_line);
  801654:	e13ffb17 	ldw	r4,-20(fp)
  801658:	08041480 	call	804148 <free>
  80165c:	00004206 	br	801768 <vid_copy_line_to_frame_buffer+0x2a4>
    }
    else if(frame_buffer->color_depth == 24)
  801660:	e0800317 	ldw	r2,12(fp)
  801664:	10800417 	ldw	r2,16(r2)
  801668:	10800618 	cmpnei	r2,r2,24
  80166c:	10003e1e 	bne	r2,zero,801768 <vid_copy_line_to_frame_buffer+0x2a4>
    {
      memcpy( (void*)dest_addr, (void*)buffer, bytes_in_line );
  801670:	e0bff817 	ldw	r2,-32(fp)
  801674:	e0fffe17 	ldw	r3,-8(fp)
  801678:	1009883a 	mov	r4,r2
  80167c:	180b883a 	mov	r5,r3
  801680:	e1bff717 	ldw	r6,-36(fp)
  801684:	08048b00 	call	8048b0 <memcpy>
  801688:	00003706 	br	801768 <vid_copy_line_to_frame_buffer+0x2a4>
    }
  }
  else if(source_color_depth == 16)
  80168c:	e0800217 	ldw	r2,8(fp)
  801690:	10800418 	cmpnei	r2,r2,16
  801694:	1000341e 	bne	r2,zero,801768 <vid_copy_line_to_frame_buffer+0x2a4>
  {
    if(frame_buffer->color_depth == 24)
  801698:	e0800317 	ldw	r2,12(fp)
  80169c:	10800417 	ldw	r2,16(r2)
  8016a0:	10800618 	cmpnei	r2,r2,24
  8016a4:	1000261e 	bne	r2,zero,801740 <vid_copy_line_to_frame_buffer+0x27c>
    {
      temp_line = malloc(bytes_in_line);
  8016a8:	e13ff717 	ldw	r4,-36(fp)
  8016ac:	080415c0 	call	80415c <malloc>
  8016b0:	e0bffb15 	stw	r2,-20(fp)
      while(index_16 < num_pixels )
  8016b4:	00001606 	br	801710 <vid_copy_line_to_frame_buffer+0x24c>
      {
        vid_color_convert16_24((short)*(buffer + index_16), (char*)(temp_line + index_24));
  8016b8:	e0bff917 	ldw	r2,-28(fp)
  8016bc:	1007883a 	mov	r3,r2
  8016c0:	e0bffe17 	ldw	r2,-8(fp)
  8016c4:	1885883a 	add	r2,r3,r2
  8016c8:	10800003 	ldbu	r2,0(r2)
  8016cc:	10803fcc 	andi	r2,r2,255
  8016d0:	1080201c 	xori	r2,r2,128
  8016d4:	10bfe004 	addi	r2,r2,-128
  8016d8:	113fffcc 	andi	r4,r2,65535
  8016dc:	e0bffa17 	ldw	r2,-24(fp)
  8016e0:	1085883a 	add	r2,r2,r2
  8016e4:	1007883a 	mov	r3,r2
  8016e8:	e0bffb17 	ldw	r2,-20(fp)
  8016ec:	1885883a 	add	r2,r3,r2
  8016f0:	100b883a 	mov	r5,r2
  8016f4:	080145c0 	call	80145c <vid_color_convert16_24>
        index_16++;
  8016f8:	e0bff917 	ldw	r2,-28(fp)
  8016fc:	10800044 	addi	r2,r2,1
  801700:	e0bff915 	stw	r2,-28(fp)
        index_24+=3;
  801704:	e0bffa17 	ldw	r2,-24(fp)
  801708:	108000c4 	addi	r2,r2,3
  80170c:	e0bffa15 	stw	r2,-24(fp)
  801710:	e0fff917 	ldw	r3,-28(fp)
  801714:	e0bfff17 	ldw	r2,-4(fp)
  801718:	18bfe716 	blt	r3,r2,8016b8 <vid_copy_line_to_frame_buffer+0x1f4>
      }
      memcpy( (void*)dest_addr, (void*)temp_line, bytes_in_line );
  80171c:	e0bff817 	ldw	r2,-32(fp)
  801720:	e0fffb17 	ldw	r3,-20(fp)
  801724:	1009883a 	mov	r4,r2
  801728:	180b883a 	mov	r5,r3
  80172c:	e1bff717 	ldw	r6,-36(fp)
  801730:	08048b00 	call	8048b0 <memcpy>
      free(temp_line);
  801734:	e13ffb17 	ldw	r4,-20(fp)
  801738:	08041480 	call	804148 <free>
  80173c:	00000a06 	br	801768 <vid_copy_line_to_frame_buffer+0x2a4>
      
    }
    else if(frame_buffer->color_depth == 16)
  801740:	e0800317 	ldw	r2,12(fp)
  801744:	10800417 	ldw	r2,16(r2)
  801748:	10800418 	cmpnei	r2,r2,16
  80174c:	1000061e 	bne	r2,zero,801768 <vid_copy_line_to_frame_buffer+0x2a4>
    {
      memcpy( (void*)dest_addr, (void*)buffer, bytes_in_line );
  801750:	e0bff817 	ldw	r2,-32(fp)
  801754:	e0fffe17 	ldw	r3,-8(fp)
  801758:	1009883a 	mov	r4,r2
  80175c:	180b883a 	mov	r5,r3
  801760:	e1bff717 	ldw	r6,-36(fp)
  801764:	08048b00 	call	8048b0 <memcpy>
    }
  }
  return(0);
  801768:	0005883a 	mov	r2,zero
}
  80176c:	e037883a 	mov	sp,fp
  801770:	dfc00117 	ldw	ra,4(sp)
  801774:	df000017 	ldw	fp,0(sp)
  801778:	dec00204 	addi	sp,sp,8
  80177c:	f800283a 	ret

00801780 <vid_draw_sloped_line>:

/******************************************************************
*  Function: vid_draw_sloped_line
*
*  Purpose: Draws a line between two end points using
*           Bresenham's line drawing algorithm.
*           width parameter is not used.  
*           It is reserved for future use.
*
******************************************************************/
void vid_draw_sloped_line( unsigned short horiz_start, 
                           unsigned short vert_start, 
                           unsigned short horiz_end, 
                           unsigned short vert_end, 
                           unsigned short width, 
                           int color, 
                           display_frame_buffer_struct* frame_buffer)
{
  801780:	deffef04 	addi	sp,sp,-68
  801784:	dfc01015 	stw	ra,64(sp)
  801788:	df000f15 	stw	fp,60(sp)
  80178c:	df000f04 	addi	fp,sp,60
  801790:	e0800217 	ldw	r2,8(fp)
  801794:	e13ffb0d 	sth	r4,-20(fp)
  801798:	e17ffc0d 	sth	r5,-16(fp)
  80179c:	e1bffd0d 	sth	r6,-12(fp)
  8017a0:	e1fffe0d 	sth	r7,-8(fp)
  8017a4:	e0bfff0d 	sth	r2,-4(fp)
  // Find the vertical and horizontal distance between the two points
  int horiz_delta = abs(horiz_end-horiz_start);
  8017a8:	e0fffd0b 	ldhu	r3,-12(fp)
  8017ac:	e0bffb0b 	ldhu	r2,-20(fp)
  8017b0:	1885c83a 	sub	r2,r3,r2
  8017b4:	e0bffa15 	stw	r2,-24(fp)
  8017b8:	e0bffa17 	ldw	r2,-24(fp)
  8017bc:	1004403a 	cmpge	r2,r2,zero
  8017c0:	1000031e 	bne	r2,zero,8017d0 <vid_draw_sloped_line+0x50>
  8017c4:	e0bffa17 	ldw	r2,-24(fp)
  8017c8:	0085c83a 	sub	r2,zero,r2
  8017cc:	e0bffa15 	stw	r2,-24(fp)
  int vert_delta = abs(vert_end-vert_start);
  8017d0:	e0fffe0b 	ldhu	r3,-8(fp)
  8017d4:	e0bffc0b 	ldhu	r2,-16(fp)
  8017d8:	1885c83a 	sub	r2,r3,r2
  8017dc:	e0bff915 	stw	r2,-28(fp)
  8017e0:	e0bff917 	ldw	r2,-28(fp)
  8017e4:	1004403a 	cmpge	r2,r2,zero
  8017e8:	1000031e 	bne	r2,zero,8017f8 <vid_draw_sloped_line+0x78>
  8017ec:	e0bff917 	ldw	r2,-28(fp)
  8017f0:	0085c83a 	sub	r2,zero,r2
  8017f4:	e0bff915 	stw	r2,-28(fp)

  // Find out what direction we are going
  int horiz_incr, vert_incr;
  if (horiz_start > horiz_end) { horiz_incr=-1; } else { horiz_incr=1; }
  8017f8:	e0fffb0b 	ldhu	r3,-20(fp)
  8017fc:	e0bffd0b 	ldhu	r2,-12(fp)
  801800:	10c0032e 	bgeu	r2,r3,801810 <vid_draw_sloped_line+0x90>
  801804:	00bfffc4 	movi	r2,-1
  801808:	e0bff815 	stw	r2,-32(fp)
  80180c:	00000206 	br	801818 <vid_draw_sloped_line+0x98>
  801810:	00800044 	movi	r2,1
  801814:	e0bff815 	stw	r2,-32(fp)
  if (vert_start > vert_end) { vert_incr=-1; } else { vert_incr=1; }
  801818:	e0fffc0b 	ldhu	r3,-16(fp)
  80181c:	e0bffe0b 	ldhu	r2,-8(fp)
  801820:	10c0032e 	bgeu	r2,r3,801830 <vid_draw_sloped_line+0xb0>
  801824:	00bfffc4 	movi	r2,-1
  801828:	e0bff715 	stw	r2,-36(fp)
  80182c:	00000206 	br	801838 <vid_draw_sloped_line+0xb8>
  801830:	00800044 	movi	r2,1
  801834:	e0bff715 	stw	r2,-36(fp)

  // Find out which axis is always incremented when drawing the line
  // If it's the horizontal axis
  if (horiz_delta >= vert_delta) {
  801838:	e0fffa17 	ldw	r3,-24(fp)
  80183c:	e0bff917 	ldw	r2,-28(fp)
  801840:	18803516 	blt	r3,r2,801918 <vid_draw_sloped_line+0x198>
    int dPr   = vert_delta<<1;
  801844:	e0bff917 	ldw	r2,-28(fp)
  801848:	1085883a 	add	r2,r2,r2
  80184c:	e0bff615 	stw	r2,-40(fp)
    int dPru  = dPr - (horiz_delta<<1);
  801850:	e0bffa17 	ldw	r2,-24(fp)
  801854:	1085883a 	add	r2,r2,r2
  801858:	1007883a 	mov	r3,r2
  80185c:	e0bff617 	ldw	r2,-40(fp)
  801860:	10c5c83a 	sub	r2,r2,r3
  801864:	e0bff515 	stw	r2,-44(fp)
    int P     = dPr - horiz_delta;
  801868:	e0fff617 	ldw	r3,-40(fp)
  80186c:	e0bffa17 	ldw	r2,-24(fp)
  801870:	1885c83a 	sub	r2,r3,r2
  801874:	e0bff415 	stw	r2,-48(fp)

    // Process the line, one horizontal point at at time
    for (; horiz_delta >= 0; horiz_delta--) {
  801878:	00002306 	br	801908 <vid_draw_sloped_line+0x188>
      // plot the pixel
      vid_set_pixel(horiz_start, vert_start, color, frame_buffer);
  80187c:	e13ffb0b 	ldhu	r4,-20(fp)
  801880:	e17ffc0b 	ldhu	r5,-16(fp)
  801884:	e1800317 	ldw	r6,12(fp)
  801888:	e1c00417 	ldw	r7,16(fp)
  80188c:	0800c500 	call	800c50 <vid_set_pixel>
      // If we're moving both up and right
      if (P > 0) {
  801890:	e0bff417 	ldw	r2,-48(fp)
  801894:	10800050 	cmplti	r2,r2,1
  801898:	10000f1e 	bne	r2,zero,8018d8 <vid_draw_sloped_line+0x158>
        horiz_start+=horiz_incr;
  80189c:	e0bff817 	ldw	r2,-32(fp)
  8018a0:	1007883a 	mov	r3,r2
  8018a4:	e0bffb0b 	ldhu	r2,-20(fp)
  8018a8:	10c5883a 	add	r2,r2,r3
  8018ac:	e0bffb0d 	sth	r2,-20(fp)
        vert_start+=vert_incr;
  8018b0:	e0bff717 	ldw	r2,-36(fp)
  8018b4:	1007883a 	mov	r3,r2
  8018b8:	e0bffc0b 	ldhu	r2,-16(fp)
  8018bc:	10c5883a 	add	r2,r2,r3
  8018c0:	e0bffc0d 	sth	r2,-16(fp)
        P+=dPru;
  8018c4:	e0fff417 	ldw	r3,-48(fp)
  8018c8:	e0bff517 	ldw	r2,-44(fp)
  8018cc:	1885883a 	add	r2,r3,r2
  8018d0:	e0bff415 	stw	r2,-48(fp)
  8018d4:	00000906 	br	8018fc <vid_draw_sloped_line+0x17c>
      } else {
        horiz_start+=horiz_incr;
  8018d8:	e0bff817 	ldw	r2,-32(fp)
  8018dc:	1007883a 	mov	r3,r2
  8018e0:	e0bffb0b 	ldhu	r2,-20(fp)
  8018e4:	10c5883a 	add	r2,r2,r3
  8018e8:	e0bffb0d 	sth	r2,-20(fp)
        P+=dPr;
  8018ec:	e0fff417 	ldw	r3,-48(fp)
  8018f0:	e0bff617 	ldw	r2,-40(fp)
  8018f4:	1885883a 	add	r2,r3,r2
  8018f8:	e0bff415 	stw	r2,-48(fp)
  8018fc:	e0bffa17 	ldw	r2,-24(fp)
  801900:	10bfffc4 	addi	r2,r2,-1
  801904:	e0bffa15 	stw	r2,-24(fp)
  801908:	e0bffa17 	ldw	r2,-24(fp)
  80190c:	1004403a 	cmpge	r2,r2,zero
  801910:	103fda1e 	bne	r2,zero,80187c <vid_draw_sloped_line+0xfc>
  801914:	00003406 	br	8019e8 <vid_draw_sloped_line+0x268>
      }
    }
  // If it's the vertical axis
  } else {
    int dPr   = horiz_delta<<1;
  801918:	e0bffa17 	ldw	r2,-24(fp)
  80191c:	1085883a 	add	r2,r2,r2
  801920:	e0bff315 	stw	r2,-52(fp)
    int dPru  = dPr - (vert_delta<<1);
  801924:	e0bff917 	ldw	r2,-28(fp)
  801928:	1085883a 	add	r2,r2,r2
  80192c:	1007883a 	mov	r3,r2
  801930:	e0bff317 	ldw	r2,-52(fp)
  801934:	10c5c83a 	sub	r2,r2,r3
  801938:	e0bff215 	stw	r2,-56(fp)
    int P     = dPr - vert_delta;
  80193c:	e0fff317 	ldw	r3,-52(fp)
  801940:	e0bff917 	ldw	r2,-28(fp)
  801944:	1885c83a 	sub	r2,r3,r2
  801948:	e0bff115 	stw	r2,-60(fp)

    // Process the line, one vertical point at at time
    for (; vert_delta>=0; vert_delta--) {
  80194c:	00002306 	br	8019dc <vid_draw_sloped_line+0x25c>
      // plot the pixel
      vid_set_pixel(horiz_start, vert_start, color, frame_buffer);
  801950:	e13ffb0b 	ldhu	r4,-20(fp)
  801954:	e17ffc0b 	ldhu	r5,-16(fp)
  801958:	e1800317 	ldw	r6,12(fp)
  80195c:	e1c00417 	ldw	r7,16(fp)
  801960:	0800c500 	call	800c50 <vid_set_pixel>
      // If we're moving both up and right
      if (P > 0) {
  801964:	e0bff117 	ldw	r2,-60(fp)
  801968:	10800050 	cmplti	r2,r2,1
  80196c:	10000f1e 	bne	r2,zero,8019ac <vid_draw_sloped_line+0x22c>
        horiz_start+=horiz_incr;
  801970:	e0bff817 	ldw	r2,-32(fp)
  801974:	1007883a 	mov	r3,r2
  801978:	e0bffb0b 	ldhu	r2,-20(fp)
  80197c:	10c5883a 	add	r2,r2,r3
  801980:	e0bffb0d 	sth	r2,-20(fp)
        vert_start+=vert_incr;
  801984:	e0bff717 	ldw	r2,-36(fp)
  801988:	1007883a 	mov	r3,r2
  80198c:	e0bffc0b 	ldhu	r2,-16(fp)
  801990:	10c5883a 	add	r2,r2,r3
  801994:	e0bffc0d 	sth	r2,-16(fp)
        P+=dPru;
  801998:	e0fff117 	ldw	r3,-60(fp)
  80199c:	e0bff217 	ldw	r2,-56(fp)
  8019a0:	1885883a 	add	r2,r3,r2
  8019a4:	e0bff115 	stw	r2,-60(fp)
  8019a8:	00000906 	br	8019d0 <vid_draw_sloped_line+0x250>
      } else {
        vert_start+=vert_incr;
  8019ac:	e0bff717 	ldw	r2,-36(fp)
  8019b0:	1007883a 	mov	r3,r2
  8019b4:	e0bffc0b 	ldhu	r2,-16(fp)
  8019b8:	10c5883a 	add	r2,r2,r3
  8019bc:	e0bffc0d 	sth	r2,-16(fp)
        P+=dPr;
  8019c0:	e0fff117 	ldw	r3,-60(fp)
  8019c4:	e0bff317 	ldw	r2,-52(fp)
  8019c8:	1885883a 	add	r2,r3,r2
  8019cc:	e0bff115 	stw	r2,-60(fp)
  8019d0:	e0bff917 	ldw	r2,-28(fp)
  8019d4:	10bfffc4 	addi	r2,r2,-1
  8019d8:	e0bff915 	stw	r2,-28(fp)
  8019dc:	e0bff917 	ldw	r2,-28(fp)
  8019e0:	1004403a 	cmpge	r2,r2,zero
  8019e4:	103fda1e 	bne	r2,zero,801950 <vid_draw_sloped_line+0x1d0>
      }
    }
  }
}
  8019e8:	e037883a 	mov	sp,fp
  8019ec:	dfc00117 	ldw	ra,4(sp)
  8019f0:	df000017 	ldw	fp,0(sp)
  8019f4:	dec00204 	addi	sp,sp,8
  8019f8:	f800283a 	ret

008019fc <vid_draw_circle>:



/******************************************************************
*  Function: vid_draw_circle
*
*  Purpose: Draws a circle on the screen with the specified center
*  and radius.  Draws symetric circles only.  The fill parameter
*  tells the function whether or not to fill in the box.  1 = fill,
*  0 = do not fill.
*
******************************************************************/
int vid_draw_circle(int Hcenter, int Vcenter, int radius, int color, char fill, display_frame_buffer_struct* frame_buffer)
{
  8019fc:	defff204 	addi	sp,sp,-56
  801a00:	dfc00d15 	stw	ra,52(sp)
  801a04:	df000c15 	stw	fp,48(sp)
  801a08:	df000c04 	addi	fp,sp,48
  801a0c:	e13ffa15 	stw	r4,-24(fp)
  801a10:	e17ffb15 	stw	r5,-20(fp)
  801a14:	e1bffc15 	stw	r6,-16(fp)
  801a18:	e1fffd15 	stw	r7,-12(fp)
  801a1c:	e0800217 	ldw	r2,8(fp)
  801a20:	e0bffe05 	stb	r2,-8(fp)
  int x = 0;
  801a24:	e03ff915 	stw	zero,-28(fp)
  int y = radius;
  801a28:	e0bffc17 	ldw	r2,-16(fp)
  801a2c:	e0bff815 	stw	r2,-32(fp)
  int p = (5 - radius*4)/4;
  801a30:	e0bffc17 	ldw	r2,-16(fp)
  801a34:	1085883a 	add	r2,r2,r2
  801a38:	1085883a 	add	r2,r2,r2
  801a3c:	1007883a 	mov	r3,r2
  801a40:	00800144 	movi	r2,5
  801a44:	10c5c83a 	sub	r2,r2,r3
  801a48:	e0bfff15 	stw	r2,-4(fp)
  801a4c:	e0ffff17 	ldw	r3,-4(fp)
  801a50:	1804403a 	cmpge	r2,r3,zero
  801a54:	1000031e 	bne	r2,zero,801a64 <vid_draw_circle+0x68>
  801a58:	e0bfff17 	ldw	r2,-4(fp)
  801a5c:	108000c4 	addi	r2,r2,3
  801a60:	e0bfff15 	stw	r2,-4(fp)
  801a64:	e0ffff17 	ldw	r3,-4(fp)
  801a68:	1805d0ba 	srai	r2,r3,2
  801a6c:	e0bff715 	stw	r2,-36(fp)

  // Start the circle with the top, bottom, left, and right pixels.
  vid_circle_points(Hcenter, Vcenter, x, y, color, fill, frame_buffer);
  801a70:	e0fffe07 	ldb	r3,-8(fp)
  801a74:	e0bffd17 	ldw	r2,-12(fp)
  801a78:	d8800015 	stw	r2,0(sp)
  801a7c:	d8c00115 	stw	r3,4(sp)
  801a80:	e0800317 	ldw	r2,12(fp)
  801a84:	d8800215 	stw	r2,8(sp)
  801a88:	e13ffa17 	ldw	r4,-24(fp)
  801a8c:	e17ffb17 	ldw	r5,-20(fp)
  801a90:	e1bff917 	ldw	r6,-28(fp)
  801a94:	e1fff817 	ldw	r7,-32(fp)
  801a98:	0801b580 	call	801b58 <vid_circle_points>

  // Now start moving out from those points until the lines meet
  while (x < y) {
  801a9c:	00002506 	br	801b34 <vid_draw_circle+0x138>
    x++;
  801aa0:	e0bff917 	ldw	r2,-28(fp)
  801aa4:	10800044 	addi	r2,r2,1
  801aa8:	e0bff915 	stw	r2,-28(fp)
    if (p < 0) {
  801aac:	e0bff717 	ldw	r2,-36(fp)
  801ab0:	1004403a 	cmpge	r2,r2,zero
  801ab4:	1000081e 	bne	r2,zero,801ad8 <vid_draw_circle+0xdc>
      p += 2*x+1;
  801ab8:	e0bff917 	ldw	r2,-28(fp)
  801abc:	1085883a 	add	r2,r2,r2
  801ac0:	1007883a 	mov	r3,r2
  801ac4:	e0bff717 	ldw	r2,-36(fp)
  801ac8:	1885883a 	add	r2,r3,r2
  801acc:	10800044 	addi	r2,r2,1
  801ad0:	e0bff715 	stw	r2,-36(fp)
  801ad4:	00000c06 	br	801b08 <vid_draw_circle+0x10c>
    } else {
      y--;
  801ad8:	e0bff817 	ldw	r2,-32(fp)
  801adc:	10bfffc4 	addi	r2,r2,-1
  801ae0:	e0bff815 	stw	r2,-32(fp)
      p += 2*(x-y)+1;
  801ae4:	e0fff917 	ldw	r3,-28(fp)
  801ae8:	e0bff817 	ldw	r2,-32(fp)
  801aec:	1885c83a 	sub	r2,r3,r2
  801af0:	1085883a 	add	r2,r2,r2
  801af4:	1007883a 	mov	r3,r2
  801af8:	e0bff717 	ldw	r2,-36(fp)
  801afc:	1885883a 	add	r2,r3,r2
  801b00:	10800044 	addi	r2,r2,1
  801b04:	e0bff715 	stw	r2,-36(fp)
    }
    vid_circle_points(Hcenter, Vcenter, x, y, color, fill, frame_buffer);
  801b08:	e0bffe07 	ldb	r2,-8(fp)
  801b0c:	e0fffd17 	ldw	r3,-12(fp)
  801b10:	d8c00015 	stw	r3,0(sp)
  801b14:	d8800115 	stw	r2,4(sp)
  801b18:	e0800317 	ldw	r2,12(fp)
  801b1c:	d8800215 	stw	r2,8(sp)
  801b20:	e13ffa17 	ldw	r4,-24(fp)
  801b24:	e17ffb17 	ldw	r5,-20(fp)
  801b28:	e1bff917 	ldw	r6,-28(fp)
  801b2c:	e1fff817 	ldw	r7,-32(fp)
  801b30:	0801b580 	call	801b58 <vid_circle_points>
  801b34:	e0fff917 	ldw	r3,-28(fp)
  801b38:	e0bff817 	ldw	r2,-32(fp)
  801b3c:	18bfd816 	blt	r3,r2,801aa0 <vid_draw_circle+0xa4>
  }
  return (0);
  801b40:	0005883a 	mov	r2,zero
}
  801b44:	e037883a 	mov	sp,fp
  801b48:	dfc00117 	ldw	ra,4(sp)
  801b4c:	df000017 	ldw	fp,0(sp)
  801b50:	dec00204 	addi	sp,sp,8
  801b54:	f800283a 	ret

00801b58 <vid_circle_points>:

/******************************************************************
*  Function: vid_circle_points
*
*  Purpose: Called by vid_draw_circle() to plot the actual points
*  of the circle.  Draws horizontal lines to fill.
*
******************************************************************/

void vid_circle_points(int cx, int cy, int x, int y, int color, char fill, display_frame_buffer_struct* frame_buffer)
{
  801b58:	defff604 	addi	sp,sp,-40
  801b5c:	dfc00915 	stw	ra,36(sp)
  801b60:	df000815 	stw	fp,32(sp)
  801b64:	df000804 	addi	fp,sp,32
  801b68:	e13ffb15 	stw	r4,-20(fp)
  801b6c:	e17ffc15 	stw	r5,-16(fp)
  801b70:	e1bffd15 	stw	r6,-12(fp)
  801b74:	e1fffe15 	stw	r7,-8(fp)
  801b78:	e0800317 	ldw	r2,12(fp)
  801b7c:	e0bfff05 	stb	r2,-4(fp)

    // If we're directly above, below, left and right of center (0 degrees), plot those 4 pixels
    if (x == 0) {
  801b80:	e0bffd17 	ldw	r2,-12(fp)
  801b84:	1004c03a 	cmpne	r2,r2,zero
  801b88:	1000301e 	bne	r2,zero,801c4c <vid_circle_points+0xf4>
        vid_set_pixel(cx, cy + y, color, frame_buffer);
  801b8c:	e0fffc17 	ldw	r3,-16(fp)
  801b90:	e0bffe17 	ldw	r2,-8(fp)
  801b94:	188b883a 	add	r5,r3,r2
  801b98:	e1800217 	ldw	r6,8(fp)
  801b9c:	e13ffb17 	ldw	r4,-20(fp)
  801ba0:	e1c00417 	ldw	r7,16(fp)
  801ba4:	0800c500 	call	800c50 <vid_set_pixel>
        vid_set_pixel(cx, cy - y, color, frame_buffer);
  801ba8:	e0fffc17 	ldw	r3,-16(fp)
  801bac:	e0bffe17 	ldw	r2,-8(fp)
  801bb0:	188bc83a 	sub	r5,r3,r2
  801bb4:	e1800217 	ldw	r6,8(fp)
  801bb8:	e13ffb17 	ldw	r4,-20(fp)
  801bbc:	e1c00417 	ldw	r7,16(fp)
  801bc0:	0800c500 	call	800c50 <vid_set_pixel>
        if(fill) {
  801bc4:	e0bfff07 	ldb	r2,-4(fp)
  801bc8:	1005003a 	cmpeq	r2,r2,zero
  801bcc:	1000101e 	bne	r2,zero,801c10 <vid_circle_points+0xb8>
          vid_draw_line(cx - y, cy, cx + y, cy, 1, color, frame_buffer);
  801bd0:	e0fffb17 	ldw	r3,-20(fp)
  801bd4:	e0bffe17 	ldw	r2,-8(fp)
  801bd8:	1889c83a 	sub	r4,r3,r2
  801bdc:	e0fffb17 	ldw	r3,-20(fp)
  801be0:	e0bffe17 	ldw	r2,-8(fp)
  801be4:	188d883a 	add	r6,r3,r2
  801be8:	00800044 	movi	r2,1
  801bec:	d8800015 	stw	r2,0(sp)
  801bf0:	e0800217 	ldw	r2,8(fp)
  801bf4:	d8800115 	stw	r2,4(sp)
  801bf8:	e0800417 	ldw	r2,16(fp)
  801bfc:	d8800215 	stw	r2,8(sp)
  801c00:	e17ffc17 	ldw	r5,-16(fp)
  801c04:	e1fffc17 	ldw	r7,-16(fp)
  801c08:	08002000 	call	800200 <vid_draw_line>
  801c0c:	0000fc06 	br	802000 <vid_circle_points+0x4a8>
          
        } else {
          vid_set_pixel(cx + y, cy, color, frame_buffer);
  801c10:	e0fffb17 	ldw	r3,-20(fp)
  801c14:	e0bffe17 	ldw	r2,-8(fp)
  801c18:	1889883a 	add	r4,r3,r2
  801c1c:	e1800217 	ldw	r6,8(fp)
  801c20:	e17ffc17 	ldw	r5,-16(fp)
  801c24:	e1c00417 	ldw	r7,16(fp)
  801c28:	0800c500 	call	800c50 <vid_set_pixel>
          vid_set_pixel(cx - y, cy, color, frame_buffer);
  801c2c:	e0fffb17 	ldw	r3,-20(fp)
  801c30:	e0bffe17 	ldw	r2,-8(fp)
  801c34:	1889c83a 	sub	r4,r3,r2
  801c38:	e1800217 	ldw	r6,8(fp)
  801c3c:	e17ffc17 	ldw	r5,-16(fp)
  801c40:	e1c00417 	ldw	r7,16(fp)
  801c44:	0800c500 	call	800c50 <vid_set_pixel>
  801c48:	0000ed06 	br	802000 <vid_circle_points+0x4a8>
        }

    } else
    // If we've reached the 45 degree points (x=y), plot those 4 pixels
    if (x == y) {
  801c4c:	e0fffd17 	ldw	r3,-12(fp)
  801c50:	e0bffe17 	ldw	r2,-8(fp)
  801c54:	18804f1e 	bne	r3,r2,801d94 <vid_circle_points+0x23c>
      if(fill) {
  801c58:	e0bfff07 	ldb	r2,-4(fp)
  801c5c:	1005003a 	cmpeq	r2,r2,zero
  801c60:	1000271e 	bne	r2,zero,801d00 <vid_circle_points+0x1a8>
        vid_draw_line(cx - x, cy + y, cx + x, cy + y, 1, color, frame_buffer);
  801c64:	e0fffb17 	ldw	r3,-20(fp)
  801c68:	e0bffd17 	ldw	r2,-12(fp)
  801c6c:	1889c83a 	sub	r4,r3,r2
  801c70:	e0fffc17 	ldw	r3,-16(fp)
  801c74:	e0bffe17 	ldw	r2,-8(fp)
  801c78:	188b883a 	add	r5,r3,r2
  801c7c:	e0fffb17 	ldw	r3,-20(fp)
  801c80:	e0bffd17 	ldw	r2,-12(fp)
  801c84:	188d883a 	add	r6,r3,r2
  801c88:	e0fffc17 	ldw	r3,-16(fp)
  801c8c:	e0bffe17 	ldw	r2,-8(fp)
  801c90:	188f883a 	add	r7,r3,r2
  801c94:	00800044 	movi	r2,1
  801c98:	d8800015 	stw	r2,0(sp)
  801c9c:	e0800217 	ldw	r2,8(fp)
  801ca0:	d8800115 	stw	r2,4(sp)
  801ca4:	e0800417 	ldw	r2,16(fp)
  801ca8:	d8800215 	stw	r2,8(sp)
  801cac:	08002000 	call	800200 <vid_draw_line>
        vid_draw_line(cx - x, cy - y, cx + x, cy - y, 1, color, frame_buffer);
  801cb0:	e0fffb17 	ldw	r3,-20(fp)
  801cb4:	e0bffd17 	ldw	r2,-12(fp)
  801cb8:	1889c83a 	sub	r4,r3,r2
  801cbc:	e0fffc17 	ldw	r3,-16(fp)
  801cc0:	e0bffe17 	ldw	r2,-8(fp)
  801cc4:	188bc83a 	sub	r5,r3,r2
  801cc8:	e0fffb17 	ldw	r3,-20(fp)
  801ccc:	e0bffd17 	ldw	r2,-12(fp)
  801cd0:	188d883a 	add	r6,r3,r2
  801cd4:	e0fffc17 	ldw	r3,-16(fp)
  801cd8:	e0bffe17 	ldw	r2,-8(fp)
  801cdc:	188fc83a 	sub	r7,r3,r2
  801ce0:	00800044 	movi	r2,1
  801ce4:	d8800015 	stw	r2,0(sp)
  801ce8:	e0800217 	ldw	r2,8(fp)
  801cec:	d8800115 	stw	r2,4(sp)
  801cf0:	e0800417 	ldw	r2,16(fp)
  801cf4:	d8800215 	stw	r2,8(sp)
  801cf8:	08002000 	call	800200 <vid_draw_line>
  801cfc:	0000c006 	br	802000 <vid_circle_points+0x4a8>
        
      } else {
        vid_set_pixel(cx + x, cy + y, color, frame_buffer);
  801d00:	e0fffb17 	ldw	r3,-20(fp)
  801d04:	e0bffd17 	ldw	r2,-12(fp)
  801d08:	1889883a 	add	r4,r3,r2
  801d0c:	e0fffc17 	ldw	r3,-16(fp)
  801d10:	e0bffe17 	ldw	r2,-8(fp)
  801d14:	188b883a 	add	r5,r3,r2
  801d18:	e1800217 	ldw	r6,8(fp)
  801d1c:	e1c00417 	ldw	r7,16(fp)
  801d20:	0800c500 	call	800c50 <vid_set_pixel>
        vid_set_pixel(cx - x, cy + y, color, frame_buffer);
  801d24:	e0fffb17 	ldw	r3,-20(fp)
  801d28:	e0bffd17 	ldw	r2,-12(fp)
  801d2c:	1889c83a 	sub	r4,r3,r2
  801d30:	e0fffc17 	ldw	r3,-16(fp)
  801d34:	e0bffe17 	ldw	r2,-8(fp)
  801d38:	188b883a 	add	r5,r3,r2
  801d3c:	e1800217 	ldw	r6,8(fp)
  801d40:	e1c00417 	ldw	r7,16(fp)
  801d44:	0800c500 	call	800c50 <vid_set_pixel>
        vid_set_pixel(cx + x, cy - y, color, frame_buffer);
  801d48:	e0fffb17 	ldw	r3,-20(fp)
  801d4c:	e0bffd17 	ldw	r2,-12(fp)
  801d50:	1889883a 	add	r4,r3,r2
  801d54:	e0fffc17 	ldw	r3,-16(fp)
  801d58:	e0bffe17 	ldw	r2,-8(fp)
  801d5c:	188bc83a 	sub	r5,r3,r2
  801d60:	e1800217 	ldw	r6,8(fp)
  801d64:	e1c00417 	ldw	r7,16(fp)
  801d68:	0800c500 	call	800c50 <vid_set_pixel>
        vid_set_pixel(cx - x, cy - y, color, frame_buffer);
  801d6c:	e0fffb17 	ldw	r3,-20(fp)
  801d70:	e0bffd17 	ldw	r2,-12(fp)
  801d74:	1889c83a 	sub	r4,r3,r2
  801d78:	e0fffc17 	ldw	r3,-16(fp)
  801d7c:	e0bffe17 	ldw	r2,-8(fp)
  801d80:	188bc83a 	sub	r5,r3,r2
  801d84:	e1800217 	ldw	r6,8(fp)
  801d88:	e1c00417 	ldw	r7,16(fp)
  801d8c:	0800c500 	call	800c50 <vid_set_pixel>
  801d90:	00009b06 	br	802000 <vid_circle_points+0x4a8>
      }
    } else
    // If we're between 0 and 45 degrees plot 8 pixels.
    if (x < y) {
  801d94:	e0fffd17 	ldw	r3,-12(fp)
  801d98:	e0bffe17 	ldw	r2,-8(fp)
  801d9c:	1880980e 	bge	r3,r2,802000 <vid_circle_points+0x4a8>
        if(fill) {
  801da0:	e0bfff07 	ldb	r2,-4(fp)
  801da4:	1005003a 	cmpeq	r2,r2,zero
  801da8:	10004d1e 	bne	r2,zero,801ee0 <vid_circle_points+0x388>
          vid_draw_line(cx - x, cy + y, cx + x, cy + y, 1, color, frame_buffer);
  801dac:	e0fffb17 	ldw	r3,-20(fp)
  801db0:	e0bffd17 	ldw	r2,-12(fp)
  801db4:	1889c83a 	sub	r4,r3,r2
  801db8:	e0fffc17 	ldw	r3,-16(fp)
  801dbc:	e0bffe17 	ldw	r2,-8(fp)
  801dc0:	188b883a 	add	r5,r3,r2
  801dc4:	e0fffb17 	ldw	r3,-20(fp)
  801dc8:	e0bffd17 	ldw	r2,-12(fp)
  801dcc:	188d883a 	add	r6,r3,r2
  801dd0:	e0fffc17 	ldw	r3,-16(fp)
  801dd4:	e0bffe17 	ldw	r2,-8(fp)
  801dd8:	188f883a 	add	r7,r3,r2
  801ddc:	00800044 	movi	r2,1
  801de0:	d8800015 	stw	r2,0(sp)
  801de4:	e0800217 	ldw	r2,8(fp)
  801de8:	d8800115 	stw	r2,4(sp)
  801dec:	e0800417 	ldw	r2,16(fp)
  801df0:	d8800215 	stw	r2,8(sp)
  801df4:	08002000 	call	800200 <vid_draw_line>
          vid_draw_line(cx - y, cy + x, cx + y, cy + x, 1, color, frame_buffer);
  801df8:	e0fffb17 	ldw	r3,-20(fp)
  801dfc:	e0bffe17 	ldw	r2,-8(fp)
  801e00:	1889c83a 	sub	r4,r3,r2
  801e04:	e0fffc17 	ldw	r3,-16(fp)
  801e08:	e0bffd17 	ldw	r2,-12(fp)
  801e0c:	188b883a 	add	r5,r3,r2
  801e10:	e0fffb17 	ldw	r3,-20(fp)
  801e14:	e0bffe17 	ldw	r2,-8(fp)
  801e18:	188d883a 	add	r6,r3,r2
  801e1c:	e0fffc17 	ldw	r3,-16(fp)
  801e20:	e0bffd17 	ldw	r2,-12(fp)
  801e24:	188f883a 	add	r7,r3,r2
  801e28:	00800044 	movi	r2,1
  801e2c:	d8800015 	stw	r2,0(sp)
  801e30:	e0800217 	ldw	r2,8(fp)
  801e34:	d8800115 	stw	r2,4(sp)
  801e38:	e0800417 	ldw	r2,16(fp)
  801e3c:	d8800215 	stw	r2,8(sp)
  801e40:	08002000 	call	800200 <vid_draw_line>
          vid_draw_line(cx - y, cy - x, cx + y, cy - x, 1, color, frame_buffer);
  801e44:	e0fffb17 	ldw	r3,-20(fp)
  801e48:	e0bffe17 	ldw	r2,-8(fp)
  801e4c:	1889c83a 	sub	r4,r3,r2
  801e50:	e0fffc17 	ldw	r3,-16(fp)
  801e54:	e0bffd17 	ldw	r2,-12(fp)
  801e58:	188bc83a 	sub	r5,r3,r2
  801e5c:	e0fffb17 	ldw	r3,-20(fp)
  801e60:	e0bffe17 	ldw	r2,-8(fp)
  801e64:	188d883a 	add	r6,r3,r2
  801e68:	e0fffc17 	ldw	r3,-16(fp)
  801e6c:	e0bffd17 	ldw	r2,-12(fp)
  801e70:	188fc83a 	sub	r7,r3,r2
  801e74:	00800044 	movi	r2,1
  801e78:	d8800015 	stw	r2,0(sp)
  801e7c:	e0800217 	ldw	r2,8(fp)
  801e80:	d8800115 	stw	r2,4(sp)
  801e84:	e0800417 	ldw	r2,16(fp)
  801e88:	d8800215 	stw	r2,8(sp)
  801e8c:	08002000 	call	800200 <vid_draw_line>
          vid_draw_line(cx - x, cy - y, cx + x, cy - y, 1, color, frame_buffer);
  801e90:	e0fffb17 	ldw	r3,-20(fp)
  801e94:	e0bffd17 	ldw	r2,-12(fp)
  801e98:	1889c83a 	sub	r4,r3,r2
  801e9c:	e0fffc17 	ldw	r3,-16(fp)
  801ea0:	e0bffe17 	ldw	r2,-8(fp)
  801ea4:	188bc83a 	sub	r5,r3,r2
  801ea8:	e0fffb17 	ldw	r3,-20(fp)
  801eac:	e0bffd17 	ldw	r2,-12(fp)
  801eb0:	188d883a 	add	r6,r3,r2
  801eb4:	e0fffc17 	ldw	r3,-16(fp)
  801eb8:	e0bffe17 	ldw	r2,-8(fp)
  801ebc:	188fc83a 	sub	r7,r3,r2
  801ec0:	00800044 	movi	r2,1
  801ec4:	d8800015 	stw	r2,0(sp)
  801ec8:	e0800217 	ldw	r2,8(fp)
  801ecc:	d8800115 	stw	r2,4(sp)
  801ed0:	e0800417 	ldw	r2,16(fp)
  801ed4:	d8800215 	stw	r2,8(sp)
  801ed8:	08002000 	call	800200 <vid_draw_line>
  801edc:	00004806 	br	802000 <vid_circle_points+0x4a8>
        } else {
          vid_set_pixel(cx + x, cy + y, color, frame_buffer);
  801ee0:	e0fffb17 	ldw	r3,-20(fp)
  801ee4:	e0bffd17 	ldw	r2,-12(fp)
  801ee8:	1889883a 	add	r4,r3,r2
  801eec:	e0fffc17 	ldw	r3,-16(fp)
  801ef0:	e0bffe17 	ldw	r2,-8(fp)
  801ef4:	188b883a 	add	r5,r3,r2
  801ef8:	e1800217 	ldw	r6,8(fp)
  801efc:	e1c00417 	ldw	r7,16(fp)
  801f00:	0800c500 	call	800c50 <vid_set_pixel>
          vid_set_pixel(cx - x, cy + y, color, frame_buffer);
  801f04:	e0fffb17 	ldw	r3,-20(fp)
  801f08:	e0bffd17 	ldw	r2,-12(fp)
  801f0c:	1889c83a 	sub	r4,r3,r2
  801f10:	e0fffc17 	ldw	r3,-16(fp)
  801f14:	e0bffe17 	ldw	r2,-8(fp)
  801f18:	188b883a 	add	r5,r3,r2
  801f1c:	e1800217 	ldw	r6,8(fp)
  801f20:	e1c00417 	ldw	r7,16(fp)
  801f24:	0800c500 	call	800c50 <vid_set_pixel>
          vid_set_pixel(cx + x, cy - y, color, frame_buffer);
  801f28:	e0fffb17 	ldw	r3,-20(fp)
  801f2c:	e0bffd17 	ldw	r2,-12(fp)
  801f30:	1889883a 	add	r4,r3,r2
  801f34:	e0fffc17 	ldw	r3,-16(fp)
  801f38:	e0bffe17 	ldw	r2,-8(fp)
  801f3c:	188bc83a 	sub	r5,r3,r2
  801f40:	e1800217 	ldw	r6,8(fp)
  801f44:	e1c00417 	ldw	r7,16(fp)
  801f48:	0800c500 	call	800c50 <vid_set_pixel>
          vid_set_pixel(cx - x, cy - y, color, frame_buffer);
  801f4c:	e0fffb17 	ldw	r3,-20(fp)
  801f50:	e0bffd17 	ldw	r2,-12(fp)
  801f54:	1889c83a 	sub	r4,r3,r2
  801f58:	e0fffc17 	ldw	r3,-16(fp)
  801f5c:	e0bffe17 	ldw	r2,-8(fp)
  801f60:	188bc83a 	sub	r5,r3,r2
  801f64:	e1800217 	ldw	r6,8(fp)
  801f68:	e1c00417 	ldw	r7,16(fp)
  801f6c:	0800c500 	call	800c50 <vid_set_pixel>
          vid_set_pixel(cx + y, cy + x, color, frame_buffer);
  801f70:	e0fffb17 	ldw	r3,-20(fp)
  801f74:	e0bffe17 	ldw	r2,-8(fp)
  801f78:	1889883a 	add	r4,r3,r2
  801f7c:	e0fffc17 	ldw	r3,-16(fp)
  801f80:	e0bffd17 	ldw	r2,-12(fp)
  801f84:	188b883a 	add	r5,r3,r2
  801f88:	e1800217 	ldw	r6,8(fp)
  801f8c:	e1c00417 	ldw	r7,16(fp)
  801f90:	0800c500 	call	800c50 <vid_set_pixel>
          vid_set_pixel(cx - y, cy + x, color, frame_buffer);
  801f94:	e0fffb17 	ldw	r3,-20(fp)
  801f98:	e0bffe17 	ldw	r2,-8(fp)
  801f9c:	1889c83a 	sub	r4,r3,r2
  801fa0:	e0fffc17 	ldw	r3,-16(fp)
  801fa4:	e0bffd17 	ldw	r2,-12(fp)
  801fa8:	188b883a 	add	r5,r3,r2
  801fac:	e1800217 	ldw	r6,8(fp)
  801fb0:	e1c00417 	ldw	r7,16(fp)
  801fb4:	0800c500 	call	800c50 <vid_set_pixel>
          vid_set_pixel(cx + y, cy - x, color, frame_buffer);
  801fb8:	e0fffb17 	ldw	r3,-20(fp)
  801fbc:	e0bffe17 	ldw	r2,-8(fp)
  801fc0:	1889883a 	add	r4,r3,r2
  801fc4:	e0fffc17 	ldw	r3,-16(fp)
  801fc8:	e0bffd17 	ldw	r2,-12(fp)
  801fcc:	188bc83a 	sub	r5,r3,r2
  801fd0:	e1800217 	ldw	r6,8(fp)
  801fd4:	e1c00417 	ldw	r7,16(fp)
  801fd8:	0800c500 	call	800c50 <vid_set_pixel>
          vid_set_pixel(cx - y, cy - x, color, frame_buffer);
  801fdc:	e0fffb17 	ldw	r3,-20(fp)
  801fe0:	e0bffe17 	ldw	r2,-8(fp)
  801fe4:	1889c83a 	sub	r4,r3,r2
  801fe8:	e0fffc17 	ldw	r3,-16(fp)
  801fec:	e0bffd17 	ldw	r2,-12(fp)
  801ff0:	188bc83a 	sub	r5,r3,r2
  801ff4:	e1800217 	ldw	r6,8(fp)
  801ff8:	e1c00417 	ldw	r7,16(fp)
  801ffc:	0800c500 	call	800c50 <vid_set_pixel>
        }
    }
}
  802000:	e037883a 	mov	sp,fp
  802004:	dfc00117 	ldw	ra,4(sp)
  802008:	df000017 	ldw	fp,0(sp)
  80200c:	dec00204 	addi	sp,sp,8
  802010:	f800283a 	ret

00802014 <max3>:


/******************************************************************
*  Function: min3
*
*  Purpose:  Returns the minimum value of 3 parameters
*            Used for drawing filled shapes
*
******************************************************************/
__inline__ int max3( int a, int b, int c )
{
  802014:	defffc04 	addi	sp,sp,-16
  802018:	df000315 	stw	fp,12(sp)
  80201c:	df000304 	addi	fp,sp,12
  802020:	e13ffd15 	stw	r4,-12(fp)
  802024:	e17ffe15 	stw	r5,-8(fp)
  802028:	e1bfff15 	stw	r6,-4(fp)
  if( a < b )
  80202c:	e0fffd17 	ldw	r3,-12(fp)
  802030:	e0bffe17 	ldw	r2,-8(fp)
  802034:	1880020e 	bge	r3,r2,802040 <max3+0x2c>
    a = b;
  802038:	e0bffe17 	ldw	r2,-8(fp)
  80203c:	e0bffd15 	stw	r2,-12(fp)
  if( a < c )
  802040:	e0fffd17 	ldw	r3,-12(fp)
  802044:	e0bfff17 	ldw	r2,-4(fp)
  802048:	1880020e 	bge	r3,r2,802054 <max3+0x40>
    a = c;
  80204c:	e0bfff17 	ldw	r2,-4(fp)
  802050:	e0bffd15 	stw	r2,-12(fp)
  
  return a;
  802054:	e0bffd17 	ldw	r2,-12(fp)
}
  802058:	e037883a 	mov	sp,fp
  80205c:	df000017 	ldw	fp,0(sp)
  802060:	dec00104 	addi	sp,sp,4
  802064:	f800283a 	ret

00802068 <min3>:

/******************************************************************
*  Function: min3
*
*  Purpose:  Returns the minimum value of 3 parameters
*            Used for drawing filled shapes.
*
******************************************************************/
__inline__ int min3( int a, int b, int c )
{
  802068:	defffc04 	addi	sp,sp,-16
  80206c:	df000315 	stw	fp,12(sp)
  802070:	df000304 	addi	fp,sp,12
  802074:	e13ffd15 	stw	r4,-12(fp)
  802078:	e17ffe15 	stw	r5,-8(fp)
  80207c:	e1bfff15 	stw	r6,-4(fp)
  if( a > b )
  802080:	e0fffd17 	ldw	r3,-12(fp)
  802084:	e0bffe17 	ldw	r2,-8(fp)
  802088:	10c0020e 	bge	r2,r3,802094 <min3+0x2c>
    a = b;
  80208c:	e0bffe17 	ldw	r2,-8(fp)
  802090:	e0bffd15 	stw	r2,-12(fp)
  if( a > c )
  802094:	e0fffd17 	ldw	r3,-12(fp)
  802098:	e0bfff17 	ldw	r2,-4(fp)
  80209c:	10c0020e 	bge	r2,r3,8020a8 <min3+0x40>
    a = c;
  8020a0:	e0bfff17 	ldw	r2,-4(fp)
  8020a4:	e0bffd15 	stw	r2,-12(fp)
  
  return a;
  8020a8:	e0bffd17 	ldw	r2,-12(fp)
}
  8020ac:	e037883a 	mov	sp,fp
  8020b0:	df000017 	ldw	fp,0(sp)
  8020b4:	dec00104 	addi	sp,sp,4
  8020b8:	f800283a 	ret

008020bc <max_diff3>:

/******************************************************************
*  Function: max_diff3
*
*  Purpose:  Returns the positive max difference between 3 
*            parameters.  Used for drawing filled shapes
*
******************************************************************/
__inline__ int max_diff3(int a, int b, int c)
{
  8020bc:	defff904 	addi	sp,sp,-28
  8020c0:	dfc00615 	stw	ra,24(sp)
  8020c4:	df000515 	stw	fp,20(sp)
  8020c8:	df000504 	addi	fp,sp,20
  8020cc:	e13ffd15 	stw	r4,-12(fp)
  8020d0:	e17ffe15 	stw	r5,-8(fp)
  8020d4:	e1bfff15 	stw	r6,-4(fp)
  int max, min;
    
  max = max3( a, b, c );
  8020d8:	e13ffd17 	ldw	r4,-12(fp)
  8020dc:	e17ffe17 	ldw	r5,-8(fp)
  8020e0:	e1bfff17 	ldw	r6,-4(fp)
  8020e4:	08020140 	call	802014 <max3>
  8020e8:	e0bffc15 	stw	r2,-16(fp)
  min = min3( a, b, c );
  8020ec:	e13ffd17 	ldw	r4,-12(fp)
  8020f0:	e17ffe17 	ldw	r5,-8(fp)
  8020f4:	e1bfff17 	ldw	r6,-4(fp)
  8020f8:	08020680 	call	802068 <min3>
  8020fc:	e0bffb15 	stw	r2,-20(fp)
  return (max - min);
  802100:	e0fffc17 	ldw	r3,-16(fp)
  802104:	e0bffb17 	ldw	r2,-20(fp)
  802108:	1885c83a 	sub	r2,r3,r2
}
  80210c:	e037883a 	mov	sp,fp
  802110:	dfc00117 	ldw	ra,4(sp)
  802114:	df000017 	ldw	fp,0(sp)
  802118:	dec00204 	addi	sp,sp,8
  80211c:	f800283a 	ret

00802120 <vid_put_pixel_in_span_map>:

/******************************************************************
*  Function: vid_put_pixel_in_span_map
*
*  Purpose:  This function places a pixel into either the max or
*            min value of an element that represents a span, 
*            essentially just a horizontal line used to fill shapes.
*
******************************************************************/
inline void vid_put_pixel_in_span_map( int x, int y, int *span_array )
{
  802120:	defffc04 	addi	sp,sp,-16
  802124:	df000315 	stw	fp,12(sp)
  802128:	df000304 	addi	fp,sp,12
  80212c:	e13ffd15 	stw	r4,-12(fp)
  802130:	e17ffe15 	stw	r5,-8(fp)
  802134:	e1bfff15 	stw	r6,-4(fp)
  if (span_array[y*2] == -1)
  802138:	e0bffe17 	ldw	r2,-8(fp)
  80213c:	100490fa 	slli	r2,r2,3
  802140:	1007883a 	mov	r3,r2
  802144:	e0bfff17 	ldw	r2,-4(fp)
  802148:	1885883a 	add	r2,r3,r2
  80214c:	10800017 	ldw	r2,0(r2)
  802150:	10bfffd8 	cmpnei	r2,r2,-1
  802154:	1000101e 	bne	r2,zero,802198 <vid_put_pixel_in_span_map+0x78>
  {
    span_array[y*2] = x;
  802158:	e0bffe17 	ldw	r2,-8(fp)
  80215c:	100490fa 	slli	r2,r2,3
  802160:	1007883a 	mov	r3,r2
  802164:	e0bfff17 	ldw	r2,-4(fp)
  802168:	1887883a 	add	r3,r3,r2
  80216c:	e0bffd17 	ldw	r2,-12(fp)
  802170:	18800015 	stw	r2,0(r3)
    span_array[(y*2)+1] = x;
  802174:	e0bffe17 	ldw	r2,-8(fp)
  802178:	100490fa 	slli	r2,r2,3
  80217c:	1007883a 	mov	r3,r2
  802180:	e0bfff17 	ldw	r2,-4(fp)
  802184:	1885883a 	add	r2,r3,r2
  802188:	10c00104 	addi	r3,r2,4
  80218c:	e0bffd17 	ldw	r2,-12(fp)
  802190:	18800015 	stw	r2,0(r3)
  802194:	00002106 	br	80221c <vid_put_pixel_in_span_map+0xfc>
  }
  else if( span_array[y*2] > x )
  802198:	e0bffe17 	ldw	r2,-8(fp)
  80219c:	100490fa 	slli	r2,r2,3
  8021a0:	1007883a 	mov	r3,r2
  8021a4:	e0bfff17 	ldw	r2,-4(fp)
  8021a8:	1885883a 	add	r2,r3,r2
  8021ac:	10c00017 	ldw	r3,0(r2)
  8021b0:	e0bffd17 	ldw	r2,-12(fp)
  8021b4:	10c0080e 	bge	r2,r3,8021d8 <vid_put_pixel_in_span_map+0xb8>
    span_array[y*2] = x;
  8021b8:	e0bffe17 	ldw	r2,-8(fp)
  8021bc:	100490fa 	slli	r2,r2,3
  8021c0:	1007883a 	mov	r3,r2
  8021c4:	e0bfff17 	ldw	r2,-4(fp)
  8021c8:	1887883a 	add	r3,r3,r2
  8021cc:	e0bffd17 	ldw	r2,-12(fp)
  8021d0:	18800015 	stw	r2,0(r3)
  8021d4:	00001106 	br	80221c <vid_put_pixel_in_span_map+0xfc>
  else if( span_array[(y*2)+1] < x )
  8021d8:	e0bffe17 	ldw	r2,-8(fp)
  8021dc:	100490fa 	slli	r2,r2,3
  8021e0:	1007883a 	mov	r3,r2
  8021e4:	e0bfff17 	ldw	r2,-4(fp)
  8021e8:	1885883a 	add	r2,r3,r2
  8021ec:	10800104 	addi	r2,r2,4
  8021f0:	10c00017 	ldw	r3,0(r2)
  8021f4:	e0bffd17 	ldw	r2,-12(fp)
  8021f8:	1880080e 	bge	r3,r2,80221c <vid_put_pixel_in_span_map+0xfc>
    span_array[(y*2)+1] = x;
  8021fc:	e0bffe17 	ldw	r2,-8(fp)
  802200:	100490fa 	slli	r2,r2,3
  802204:	1007883a 	mov	r3,r2
  802208:	e0bfff17 	ldw	r2,-4(fp)
  80220c:	1885883a 	add	r2,r3,r2
  802210:	10c00104 	addi	r3,r2,4
  802214:	e0bffd17 	ldw	r2,-12(fp)
  802218:	18800015 	stw	r2,0(r3)
}
  80221c:	e037883a 	mov	sp,fp
  802220:	df000017 	ldw	fp,0(sp)
  802224:	dec00104 	addi	sp,sp,4
  802228:	f800283a 	ret

0080222c <vid_bres_scan_edges>:

/******************************************************************
*  Function: vid_bres_scan_edges
*
*  Purpose:  This function uses Bresenham's algorithm to scan a line
*            and determine whether it's the left(min) or right(max)
*            edge of a horizontal span.  This is useful for drawing
*            filled shapes where you fill by drawing successive
*            horizontal lines.
*
******************************************************************/
void vid_bres_scan_edges( int x1, int y1, int x2, int y2, int *span_array) 
{
  80222c:	deffee04 	addi	sp,sp,-72
  802230:	dfc01115 	stw	ra,68(sp)
  802234:	df001015 	stw	fp,64(sp)
  802238:	df001004 	addi	fp,sp,64
  80223c:	e13ffc15 	stw	r4,-16(fp)
  802240:	e17ffd15 	stw	r5,-12(fp)
  802244:	e1bffe15 	stw	r6,-8(fp)
  802248:	e1ffff15 	stw	r7,-4(fp)

  int x_incr, y_incr;
  int y_delta, x_delta;

  // Assure we always draw left to right
  if( x1 > x2 )
  80224c:	e0fffc17 	ldw	r3,-16(fp)
  802250:	e0bffe17 	ldw	r2,-8(fp)
  802254:	10c00c0e 	bge	r2,r3,802288 <vid_bres_scan_edges+0x5c>
  {
    int tempx = x2;
  802258:	e0bffe17 	ldw	r2,-8(fp)
  80225c:	e0bff715 	stw	r2,-36(fp)
    x2 = x1;
  802260:	e0bffc17 	ldw	r2,-16(fp)
  802264:	e0bffe15 	stw	r2,-8(fp)
    x1 = tempx;
  802268:	e0bff717 	ldw	r2,-36(fp)
  80226c:	e0bffc15 	stw	r2,-16(fp)
    int tempy = y2;
  802270:	e0bfff17 	ldw	r2,-4(fp)
  802274:	e0bff615 	stw	r2,-40(fp)
    y2 = y1;
  802278:	e0bffd17 	ldw	r2,-12(fp)
  80227c:	e0bfff15 	stw	r2,-4(fp)
    y1 = tempy;
  802280:	e0bff617 	ldw	r2,-40(fp)
  802284:	e0bffd15 	stw	r2,-12(fp)
  }
  
  // Find the vertical and horizontal distance between the two points
  y_delta = abs(y1-y2);
  802288:	e0fffd17 	ldw	r3,-12(fp)
  80228c:	e0bfff17 	ldw	r2,-4(fp)
  802290:	1885c83a 	sub	r2,r3,r2
  802294:	e0bff915 	stw	r2,-28(fp)
  802298:	e0bff917 	ldw	r2,-28(fp)
  80229c:	1004403a 	cmpge	r2,r2,zero
  8022a0:	1000031e 	bne	r2,zero,8022b0 <vid_bres_scan_edges+0x84>
  8022a4:	e0bff917 	ldw	r2,-28(fp)
  8022a8:	0085c83a 	sub	r2,zero,r2
  8022ac:	e0bff915 	stw	r2,-28(fp)
  x_delta = (x2-x1);
  8022b0:	e0fffe17 	ldw	r3,-8(fp)
  8022b4:	e0bffc17 	ldw	r2,-16(fp)
  8022b8:	1885c83a 	sub	r2,r3,r2
  8022bc:	e0bff815 	stw	r2,-32(fp)

  // Find out what direction we are going
  if (y1 > y2) { y_incr=-1; } else { y_incr=1; }
  8022c0:	e0fffd17 	ldw	r3,-12(fp)
  8022c4:	e0bfff17 	ldw	r2,-4(fp)
  8022c8:	10c0030e 	bge	r2,r3,8022d8 <vid_bres_scan_edges+0xac>
  8022cc:	00bfffc4 	movi	r2,-1
  8022d0:	e0bffa15 	stw	r2,-24(fp)
  8022d4:	00000206 	br	8022e0 <vid_bres_scan_edges+0xb4>
  8022d8:	00800044 	movi	r2,1
  8022dc:	e0bffa15 	stw	r2,-24(fp)
  x_incr=1;
  8022e0:	00800044 	movi	r2,1
  8022e4:	e0bffb15 	stw	r2,-20(fp)

  // Find out which axis is always incremented when drawing the line
  // If it's the horizontal axis
  if (x_delta >= y_delta) {
  8022e8:	e0fff817 	ldw	r3,-32(fp)
  8022ec:	e0bff917 	ldw	r2,-28(fp)
  8022f0:	18803116 	blt	r3,r2,8023b8 <vid_bres_scan_edges+0x18c>
    int dPr   = y_delta<<1;
  8022f4:	e0bff917 	ldw	r2,-28(fp)
  8022f8:	1085883a 	add	r2,r2,r2
  8022fc:	e0bff515 	stw	r2,-44(fp)
    int dPru  = dPr - (x_delta<<1);
  802300:	e0bff817 	ldw	r2,-32(fp)
  802304:	1085883a 	add	r2,r2,r2
  802308:	1007883a 	mov	r3,r2
  80230c:	e0bff517 	ldw	r2,-44(fp)
  802310:	10c5c83a 	sub	r2,r2,r3
  802314:	e0bff415 	stw	r2,-48(fp)
    int P     = dPr - x_delta;
  802318:	e0fff517 	ldw	r3,-44(fp)
  80231c:	e0bff817 	ldw	r2,-32(fp)
  802320:	1885c83a 	sub	r2,r3,r2
  802324:	e0bff315 	stw	r2,-52(fp)

    // Process the line, one horizontal point at at time
    for (; x_delta >= 0; x_delta--) {
  802328:	00001f06 	br	8023a8 <vid_bres_scan_edges+0x17c>
      // map the pixel
      vid_put_pixel_in_span_map(x1, y1, span_array);
  80232c:	e13ffc17 	ldw	r4,-16(fp)
  802330:	e17ffd17 	ldw	r5,-12(fp)
  802334:	e1800217 	ldw	r6,8(fp)
  802338:	08021200 	call	802120 <vid_put_pixel_in_span_map>
      // If we're moving along both axis
      if (P > 0) {
  80233c:	e0bff317 	ldw	r2,-52(fp)
  802340:	10800050 	cmplti	r2,r2,1
  802344:	10000d1e 	bne	r2,zero,80237c <vid_bres_scan_edges+0x150>
        x1+=x_incr;
  802348:	e0fffc17 	ldw	r3,-16(fp)
  80234c:	e0bffb17 	ldw	r2,-20(fp)
  802350:	1885883a 	add	r2,r3,r2
  802354:	e0bffc15 	stw	r2,-16(fp)
        y1+=y_incr;
  802358:	e0fffd17 	ldw	r3,-12(fp)
  80235c:	e0bffa17 	ldw	r2,-24(fp)
  802360:	1885883a 	add	r2,r3,r2
  802364:	e0bffd15 	stw	r2,-12(fp)
        P+=dPru;
  802368:	e0fff317 	ldw	r3,-52(fp)
  80236c:	e0bff417 	ldw	r2,-48(fp)
  802370:	1885883a 	add	r2,r3,r2
  802374:	e0bff315 	stw	r2,-52(fp)
  802378:	00000806 	br	80239c <vid_bres_scan_edges+0x170>
      } else {
        x1+=x_incr;
  80237c:	e0fffc17 	ldw	r3,-16(fp)
  802380:	e0bffb17 	ldw	r2,-20(fp)
  802384:	1885883a 	add	r2,r3,r2
  802388:	e0bffc15 	stw	r2,-16(fp)
        P+=dPr;
  80238c:	e0fff317 	ldw	r3,-52(fp)
  802390:	e0bff517 	ldw	r2,-44(fp)
  802394:	1885883a 	add	r2,r3,r2
  802398:	e0bff315 	stw	r2,-52(fp)
  80239c:	e0bff817 	ldw	r2,-32(fp)
  8023a0:	10bfffc4 	addi	r2,r2,-1
  8023a4:	e0bff815 	stw	r2,-32(fp)
  8023a8:	e0bff817 	ldw	r2,-32(fp)
  8023ac:	1004403a 	cmpge	r2,r2,zero
  8023b0:	103fde1e 	bne	r2,zero,80232c <vid_bres_scan_edges+0x100>
  8023b4:	00003006 	br	802478 <vid_bres_scan_edges+0x24c>
      }
    }
  }
  else // If it's the vertical axis
  {
    int dPr   = x_delta<<1;
  8023b8:	e0bff817 	ldw	r2,-32(fp)
  8023bc:	1085883a 	add	r2,r2,r2
  8023c0:	e0bff215 	stw	r2,-56(fp)
    int dPru  = dPr - (y_delta<<1);
  8023c4:	e0bff917 	ldw	r2,-28(fp)
  8023c8:	1085883a 	add	r2,r2,r2
  8023cc:	1007883a 	mov	r3,r2
  8023d0:	e0bff217 	ldw	r2,-56(fp)
  8023d4:	10c5c83a 	sub	r2,r2,r3
  8023d8:	e0bff115 	stw	r2,-60(fp)
    int P     = dPr - y_delta;
  8023dc:	e0fff217 	ldw	r3,-56(fp)
  8023e0:	e0bff917 	ldw	r2,-28(fp)
  8023e4:	1885c83a 	sub	r2,r3,r2
  8023e8:	e0bff015 	stw	r2,-64(fp)

    // Process the line, one vertical point at at time
    for (; y_delta>=0; y_delta--) {
  8023ec:	00001f06 	br	80246c <vid_bres_scan_edges+0x240>
      // plot the pixel
      vid_put_pixel_in_span_map(x1, y1, span_array);
  8023f0:	e13ffc17 	ldw	r4,-16(fp)
  8023f4:	e17ffd17 	ldw	r5,-12(fp)
  8023f8:	e1800217 	ldw	r6,8(fp)
  8023fc:	08021200 	call	802120 <vid_put_pixel_in_span_map>
      // If we're moving along both axis
      if (P > 0) {
  802400:	e0bff017 	ldw	r2,-64(fp)
  802404:	10800050 	cmplti	r2,r2,1
  802408:	10000d1e 	bne	r2,zero,802440 <vid_bres_scan_edges+0x214>
        x1+=x_incr;
  80240c:	e0fffc17 	ldw	r3,-16(fp)
  802410:	e0bffb17 	ldw	r2,-20(fp)
  802414:	1885883a 	add	r2,r3,r2
  802418:	e0bffc15 	stw	r2,-16(fp)
        y1+=y_incr;
  80241c:	e0fffd17 	ldw	r3,-12(fp)
  802420:	e0bffa17 	ldw	r2,-24(fp)
  802424:	1885883a 	add	r2,r3,r2
  802428:	e0bffd15 	stw	r2,-12(fp)
        P+=dPru;
  80242c:	e0fff017 	ldw	r3,-64(fp)
  802430:	e0bff117 	ldw	r2,-60(fp)
  802434:	1885883a 	add	r2,r3,r2
  802438:	e0bff015 	stw	r2,-64(fp)
  80243c:	00000806 	br	802460 <vid_bres_scan_edges+0x234>
      } else {
        y1+=y_incr;
  802440:	e0fffd17 	ldw	r3,-12(fp)
  802444:	e0bffa17 	ldw	r2,-24(fp)
  802448:	1885883a 	add	r2,r3,r2
  80244c:	e0bffd15 	stw	r2,-12(fp)
        P+=dPr;
  802450:	e0fff017 	ldw	r3,-64(fp)
  802454:	e0bff217 	ldw	r2,-56(fp)
  802458:	1885883a 	add	r2,r3,r2
  80245c:	e0bff015 	stw	r2,-64(fp)
  802460:	e0bff917 	ldw	r2,-28(fp)
  802464:	10bfffc4 	addi	r2,r2,-1
  802468:	e0bff915 	stw	r2,-28(fp)
  80246c:	e0bff917 	ldw	r2,-28(fp)
  802470:	1004403a 	cmpge	r2,r2,zero
  802474:	103fde1e 	bne	r2,zero,8023f0 <vid_bres_scan_edges+0x1c4>
      }
    }
  }
}
  802478:	e037883a 	mov	sp,fp
  80247c:	dfc00117 	ldw	ra,4(sp)
  802480:	df000017 	ldw	fp,0(sp)
  802484:	dec00204 	addi	sp,sp,8
  802488:	f800283a 	ret

0080248c <vid_draw_triangle>:

/******************************************************************
*  Function: vid_draw_triangle
*
*  Purpose:  This function draws a triangle on the screen between
*            three points defined by the structure tri.
*
******************************************************************/
void vid_draw_triangle(triangle_struct* tri, display_frame_buffer_struct* frame_buffer)
{
  80248c:	defff804 	addi	sp,sp,-32
  802490:	dfc00715 	stw	ra,28(sp)
  802494:	df000615 	stw	fp,24(sp)
  802498:	df000604 	addi	fp,sp,24
  80249c:	e13ffe15 	stw	r4,-8(fp)
  8024a0:	e17fff15 	stw	r5,-4(fp)
  int i;
  
  // Outline it first
    vid_draw_line( tri->vertex_x[0], tri->vertex_y[0], 
  8024a4:	e0bffe17 	ldw	r2,-8(fp)
  8024a8:	11000017 	ldw	r4,0(r2)
  8024ac:	e0bffe17 	ldw	r2,-8(fp)
  8024b0:	11400317 	ldw	r5,12(r2)
  8024b4:	e0bffe17 	ldw	r2,-8(fp)
  8024b8:	11800117 	ldw	r6,4(r2)
  8024bc:	e0bffe17 	ldw	r2,-8(fp)
  8024c0:	11c00417 	ldw	r7,16(r2)
  8024c4:	e0bffe17 	ldw	r2,-8(fp)
  8024c8:	10c00a17 	ldw	r3,40(r2)
  8024cc:	00800044 	movi	r2,1
  8024d0:	d8800015 	stw	r2,0(sp)
  8024d4:	d8c00115 	stw	r3,4(sp)
  8024d8:	e0bfff17 	ldw	r2,-4(fp)
  8024dc:	d8800215 	stw	r2,8(sp)
  8024e0:	08002000 	call	800200 <vid_draw_line>
                   tri->vertex_x[1], tri->vertex_y[1], 1, 
                   tri->col, frame_buffer);
    vid_draw_line( tri->vertex_x[1], tri->vertex_y[1], 
  8024e4:	e0bffe17 	ldw	r2,-8(fp)
  8024e8:	11000117 	ldw	r4,4(r2)
  8024ec:	e0bffe17 	ldw	r2,-8(fp)
  8024f0:	11400417 	ldw	r5,16(r2)
  8024f4:	e0bffe17 	ldw	r2,-8(fp)
  8024f8:	11800217 	ldw	r6,8(r2)
  8024fc:	e0bffe17 	ldw	r2,-8(fp)
  802500:	11c00517 	ldw	r7,20(r2)
  802504:	e0bffe17 	ldw	r2,-8(fp)
  802508:	10c00a17 	ldw	r3,40(r2)
  80250c:	00800044 	movi	r2,1
  802510:	d8800015 	stw	r2,0(sp)
  802514:	d8c00115 	stw	r3,4(sp)
  802518:	e0bfff17 	ldw	r2,-4(fp)
  80251c:	d8800215 	stw	r2,8(sp)
  802520:	08002000 	call	800200 <vid_draw_line>
                   tri->vertex_x[2], tri->vertex_y[2], 1, 
                   tri->col, frame_buffer);
    vid_draw_line( tri->vertex_x[2], tri->vertex_y[2], 
  802524:	e0bffe17 	ldw	r2,-8(fp)
  802528:	11000217 	ldw	r4,8(r2)
  80252c:	e0bffe17 	ldw	r2,-8(fp)
  802530:	11400517 	ldw	r5,20(r2)
  802534:	e0bffe17 	ldw	r2,-8(fp)
  802538:	11800017 	ldw	r6,0(r2)
  80253c:	e0bffe17 	ldw	r2,-8(fp)
  802540:	11c00317 	ldw	r7,12(r2)
  802544:	e0bffe17 	ldw	r2,-8(fp)
  802548:	10c00a17 	ldw	r3,40(r2)
  80254c:	00800044 	movi	r2,1
  802550:	d8800015 	stw	r2,0(sp)
  802554:	d8c00115 	stw	r3,4(sp)
  802558:	e0bfff17 	ldw	r2,-4(fp)
  80255c:	d8800215 	stw	r2,8(sp)
  802560:	08002000 	call	800200 <vid_draw_line>
                   tri->vertex_x[0], tri->vertex_y[0], 1, 
                   tri->col, frame_buffer);
//  vid_draw_line(tri->bx, tri->by, tri->cx, tri->cy, 1, tri->col, frame_buffer);
//  vid_draw_line(tri->cx, tri->cy, tri->ax, tri->ay, 1, tri->col, frame_buffer);
  
  if(tri->fill == DO_FILL)
  802564:	e0bffe17 	ldw	r2,-8(fp)
  802568:	10800b17 	ldw	r2,44(r2)
  80256c:	10800058 	cmpnei	r2,r2,1
  802570:	1000931e 	bne	r2,zero,8027c0 <vid_draw_triangle+0x334>
  {
    tri->top_y = min3(tri->vertex_y[0], tri->vertex_y[1], tri->vertex_y[2]);
  802574:	e0bffe17 	ldw	r2,-8(fp)
  802578:	11000317 	ldw	r4,12(r2)
  80257c:	e0bffe17 	ldw	r2,-8(fp)
  802580:	11400417 	ldw	r5,16(r2)
  802584:	e0bffe17 	ldw	r2,-8(fp)
  802588:	11800517 	ldw	r6,20(r2)
  80258c:	08020680 	call	802068 <min3>
  802590:	1007883a 	mov	r3,r2
  802594:	e0bffe17 	ldw	r2,-8(fp)
  802598:	10c00815 	stw	r3,32(r2)
    tri->bottom_y = max3(tri->vertex_y[0], tri->vertex_y[1], tri->vertex_y[2]);
  80259c:	e0bffe17 	ldw	r2,-8(fp)
  8025a0:	11000317 	ldw	r4,12(r2)
  8025a4:	e0bffe17 	ldw	r2,-8(fp)
  8025a8:	11400417 	ldw	r5,16(r2)
  8025ac:	e0bffe17 	ldw	r2,-8(fp)
  8025b0:	11800517 	ldw	r6,20(r2)
  8025b4:	08020140 	call	802014 <max3>
  8025b8:	1007883a 	mov	r3,r2
  8025bc:	e0bffe17 	ldw	r2,-8(fp)
  8025c0:	10c00915 	stw	r3,36(r2)
    tri->spans_needed = max_diff3(tri->vertex_y[0], tri->vertex_y[1], tri->vertex_y[2]);
  8025c4:	e0bffe17 	ldw	r2,-8(fp)
  8025c8:	11000317 	ldw	r4,12(r2)
  8025cc:	e0bffe17 	ldw	r2,-8(fp)
  8025d0:	11400417 	ldw	r5,16(r2)
  8025d4:	e0bffe17 	ldw	r2,-8(fp)
  8025d8:	11800517 	ldw	r6,20(r2)
  8025dc:	08020bc0 	call	8020bc <max_diff3>
  8025e0:	1007883a 	mov	r3,r2
  8025e4:	e0bffe17 	ldw	r2,-8(fp)
  8025e8:	10c00615 	stw	r3,24(r2)
    tri->max_span = max_diff3(tri->vertex_x[0], tri->vertex_x[1], tri->vertex_x[2]);
  8025ec:	e0bffe17 	ldw	r2,-8(fp)
  8025f0:	11000017 	ldw	r4,0(r2)
  8025f4:	e0bffe17 	ldw	r2,-8(fp)
  8025f8:	11400117 	ldw	r5,4(r2)
  8025fc:	e0bffe17 	ldw	r2,-8(fp)
  802600:	11800217 	ldw	r6,8(r2)
  802604:	08020bc0 	call	8020bc <max_diff3>
  802608:	1007883a 	mov	r3,r2
  80260c:	e0bffe17 	ldw	r2,-8(fp)
  802610:	10c00715 	stw	r3,28(r2)
    tri->span_array = malloc(frame_buffer->height * 4 * 2);
  802614:	e0bfff17 	ldw	r2,-4(fp)
  802618:	10800317 	ldw	r2,12(r2)
  80261c:	100490fa 	slli	r2,r2,3
  802620:	1009883a 	mov	r4,r2
  802624:	080415c0 	call	80415c <malloc>
  802628:	1007883a 	mov	r3,r2
  80262c:	e0bffe17 	ldw	r2,-8(fp)
  802630:	10c00d15 	stw	r3,52(r2)

    //init the span array
    for( i = tri->top_y; i <= tri->bottom_y; i++)
  802634:	e0bffe17 	ldw	r2,-8(fp)
  802638:	10800817 	ldw	r2,32(r2)
  80263c:	e0bffd15 	stw	r2,-12(fp)
  802640:	00001206 	br	80268c <vid_draw_triangle+0x200>
    {
      tri->span_array[i*2] = -1;
  802644:	e0bffe17 	ldw	r2,-8(fp)
  802648:	10c00d17 	ldw	r3,52(r2)
  80264c:	e0bffd17 	ldw	r2,-12(fp)
  802650:	100490fa 	slli	r2,r2,3
  802654:	1887883a 	add	r3,r3,r2
  802658:	00bfffc4 	movi	r2,-1
  80265c:	18800015 	stw	r2,0(r3)
      tri->span_array[(i*2) + 1] = -1;
  802660:	e0bffe17 	ldw	r2,-8(fp)
  802664:	10c00d17 	ldw	r3,52(r2)
  802668:	e0bffd17 	ldw	r2,-12(fp)
  80266c:	100490fa 	slli	r2,r2,3
  802670:	1885883a 	add	r2,r3,r2
  802674:	10c00104 	addi	r3,r2,4
  802678:	00bfffc4 	movi	r2,-1
  80267c:	18800015 	stw	r2,0(r3)
  802680:	e0bffd17 	ldw	r2,-12(fp)
  802684:	10800044 	addi	r2,r2,1
  802688:	e0bffd15 	stw	r2,-12(fp)
  80268c:	e0bffe17 	ldw	r2,-8(fp)
  802690:	10c00917 	ldw	r3,36(r2)
  802694:	e0bffd17 	ldw	r2,-12(fp)
  802698:	18bfea0e 	bge	r3,r2,802644 <vid_draw_triangle+0x1b8>
    }
    
    // Scan-convert the triangle  
    vid_bres_scan_edges( tri->vertex_x[0], tri->vertex_y[0], 
  80269c:	e0bffe17 	ldw	r2,-8(fp)
  8026a0:	11000017 	ldw	r4,0(r2)
  8026a4:	e0bffe17 	ldw	r2,-8(fp)
  8026a8:	11400317 	ldw	r5,12(r2)
  8026ac:	e0bffe17 	ldw	r2,-8(fp)
  8026b0:	11800117 	ldw	r6,4(r2)
  8026b4:	e0bffe17 	ldw	r2,-8(fp)
  8026b8:	11c00417 	ldw	r7,16(r2)
  8026bc:	e0bffe17 	ldw	r2,-8(fp)
  8026c0:	10800d17 	ldw	r2,52(r2)
  8026c4:	d8800015 	stw	r2,0(sp)
  8026c8:	080222c0 	call	80222c <vid_bres_scan_edges>
                         tri->vertex_x[1], tri->vertex_y[1], tri->span_array);
    vid_bres_scan_edges( tri->vertex_x[1], tri->vertex_y[1], 
  8026cc:	e0bffe17 	ldw	r2,-8(fp)
  8026d0:	11000117 	ldw	r4,4(r2)
  8026d4:	e0bffe17 	ldw	r2,-8(fp)
  8026d8:	11400417 	ldw	r5,16(r2)
  8026dc:	e0bffe17 	ldw	r2,-8(fp)
  8026e0:	11800217 	ldw	r6,8(r2)
  8026e4:	e0bffe17 	ldw	r2,-8(fp)
  8026e8:	11c00517 	ldw	r7,20(r2)
  8026ec:	e0bffe17 	ldw	r2,-8(fp)
  8026f0:	10800d17 	ldw	r2,52(r2)
  8026f4:	d8800015 	stw	r2,0(sp)
  8026f8:	080222c0 	call	80222c <vid_bres_scan_edges>
                         tri->vertex_x[2], tri->vertex_y[2], tri->span_array);
    vid_bres_scan_edges( tri->vertex_x[2], tri->vertex_y[2], 
  8026fc:	e0bffe17 	ldw	r2,-8(fp)
  802700:	11000217 	ldw	r4,8(r2)
  802704:	e0bffe17 	ldw	r2,-8(fp)
  802708:	11400517 	ldw	r5,20(r2)
  80270c:	e0bffe17 	ldw	r2,-8(fp)
  802710:	11800017 	ldw	r6,0(r2)
  802714:	e0bffe17 	ldw	r2,-8(fp)
  802718:	11c00317 	ldw	r7,12(r2)
  80271c:	e0bffe17 	ldw	r2,-8(fp)
  802720:	10800d17 	ldw	r2,52(r2)
  802724:	d8800015 	stw	r2,0(sp)
  802728:	080222c0 	call	80222c <vid_bres_scan_edges>
                         tri->vertex_x[0], tri->vertex_y[0], tri->span_array);
  
    // Render the polygon
    for( i = tri->top_y; i <= tri->bottom_y; i++ )
  80272c:	e0bffe17 	ldw	r2,-8(fp)
  802730:	10800817 	ldw	r2,32(r2)
  802734:	e0bffd15 	stw	r2,-12(fp)
  802738:	00001a06 	br	8027a4 <vid_draw_triangle+0x318>
    {
//      vid_draw_horiz_line (tri->span_array[i*2], tri->span_array[(i*2)+1], i, tri->col, frame_buffer);
      vid_draw_line (tri->span_array[i*2], i, tri->span_array[(i*2)+1], i, 1, tri->col, frame_buffer);
  80273c:	e0bffe17 	ldw	r2,-8(fp)
  802740:	10c00d17 	ldw	r3,52(r2)
  802744:	e0bffd17 	ldw	r2,-12(fp)
  802748:	100490fa 	slli	r2,r2,3
  80274c:	1885883a 	add	r2,r3,r2
  802750:	11000017 	ldw	r4,0(r2)
  802754:	e0bffe17 	ldw	r2,-8(fp)
  802758:	10c00d17 	ldw	r3,52(r2)
  80275c:	e0bffd17 	ldw	r2,-12(fp)
  802760:	100490fa 	slli	r2,r2,3
  802764:	1885883a 	add	r2,r3,r2
  802768:	10800104 	addi	r2,r2,4
  80276c:	11800017 	ldw	r6,0(r2)
  802770:	e0bffe17 	ldw	r2,-8(fp)
  802774:	10c00a17 	ldw	r3,40(r2)
  802778:	00800044 	movi	r2,1
  80277c:	d8800015 	stw	r2,0(sp)
  802780:	d8c00115 	stw	r3,4(sp)
  802784:	e0bfff17 	ldw	r2,-4(fp)
  802788:	d8800215 	stw	r2,8(sp)
  80278c:	e17ffd17 	ldw	r5,-12(fp)
  802790:	e1fffd17 	ldw	r7,-12(fp)
  802794:	08002000 	call	800200 <vid_draw_line>
  802798:	e0bffd17 	ldw	r2,-12(fp)
  80279c:	10800044 	addi	r2,r2,1
  8027a0:	e0bffd15 	stw	r2,-12(fp)
  8027a4:	e0bffe17 	ldw	r2,-8(fp)
  8027a8:	10c00917 	ldw	r3,36(r2)
  8027ac:	e0bffd17 	ldw	r2,-12(fp)
  8027b0:	18bfe20e 	bge	r3,r2,80273c <vid_draw_triangle+0x2b0>

    }
    free(tri->span_array);
  8027b4:	e0bffe17 	ldw	r2,-8(fp)
  8027b8:	11000d17 	ldw	r4,52(r2)
  8027bc:	08041480 	call	804148 <free>
  }
}
  8027c0:	e037883a 	mov	sp,fp
  8027c4:	dfc00117 	ldw	ra,4(sp)
  8027c8:	df000017 	ldw	fp,0(sp)
  8027cc:	dec00204 	addi	sp,sp,8
  8027d0:	f800283a 	ret

008027d4 <CopyImage16>:

void CopyImage16( short * __restrict__ source_buffer, 
                  short * __restrict__ dest_buffer, 
                  short source_width, short source_height,
                  short dest_width, short dest_height )
{
  8027d4:	defff404 	addi	sp,sp,-48
  8027d8:	dfc00b15 	stw	ra,44(sp)
  8027dc:	df000a15 	stw	fp,40(sp)
  8027e0:	df000a04 	addi	fp,sp,40
  8027e4:	e13ffa15 	stw	r4,-24(fp)
  8027e8:	e17ffb15 	stw	r5,-20(fp)
  8027ec:	e0800217 	ldw	r2,8(fp)
  8027f0:	e0c00317 	ldw	r3,12(fp)
  8027f4:	e1bffc0d 	sth	r6,-16(fp)
  8027f8:	e1fffd0d 	sth	r7,-12(fp)
  8027fc:	e0bffe0d 	sth	r2,-8(fp)
  802800:	e0ffff0d 	sth	r3,-4(fp)
  int y_src, y_dst;
  int y_src_offset = 0;
  802804:	e03ff715 	stw	zero,-36(fp)
  int y_dst_offset = 0;
  802808:	e03ff615 	stw	zero,-40(fp)
  
  for( y_src = 0, y_dst = 0; 
  80280c:	e03ff915 	stw	zero,-28(fp)
  802810:	e03ff815 	stw	zero,-32(fp)
       y_src <= ( source_height  - 1 ); 
  802814:	00001d06 	br	80288c <CopyImage16+0xb8>
       y_src++, y_dst++, y_src_offset += source_width, y_dst_offset += dest_width )
  {
    memcpy(( dest_buffer + y_dst_offset ), 
  802818:	e0bff617 	ldw	r2,-40(fp)
  80281c:	1085883a 	add	r2,r2,r2
  802820:	1007883a 	mov	r3,r2
  802824:	e0bffb17 	ldw	r2,-20(fp)
  802828:	1889883a 	add	r4,r3,r2
  80282c:	e0bff717 	ldw	r2,-36(fp)
  802830:	1085883a 	add	r2,r2,r2
  802834:	1007883a 	mov	r3,r2
  802838:	e0bffa17 	ldw	r2,-24(fp)
  80283c:	1887883a 	add	r3,r3,r2
  802840:	e0bffc0f 	ldh	r2,-16(fp)
  802844:	1085883a 	add	r2,r2,r2
  802848:	180b883a 	mov	r5,r3
  80284c:	100d883a 	mov	r6,r2
  802850:	08048b00 	call	8048b0 <memcpy>
  802854:	e0bff917 	ldw	r2,-28(fp)
  802858:	10800044 	addi	r2,r2,1
  80285c:	e0bff915 	stw	r2,-28(fp)
  802860:	e0bff817 	ldw	r2,-32(fp)
  802864:	10800044 	addi	r2,r2,1
  802868:	e0bff815 	stw	r2,-32(fp)
  80286c:	e0fffc0f 	ldh	r3,-16(fp)
  802870:	e0bff717 	ldw	r2,-36(fp)
  802874:	10c5883a 	add	r2,r2,r3
  802878:	e0bff715 	stw	r2,-36(fp)
  80287c:	e0fffe0f 	ldh	r3,-8(fp)
  802880:	e0bff617 	ldw	r2,-40(fp)
  802884:	10c5883a 	add	r2,r2,r3
  802888:	e0bff615 	stw	r2,-40(fp)
  80288c:	e0bffd0f 	ldh	r2,-12(fp)
  802890:	10ffffc4 	addi	r3,r2,-1
  802894:	e0bff917 	ldw	r2,-28(fp)
  802898:	18bfdf0e 	bge	r3,r2,802818 <CopyImage16+0x44>
           ( source_buffer + y_src_offset ), 
           ( source_width << 1 ));
  }
}
  80289c:	e037883a 	mov	sp,fp
  8028a0:	dfc00117 	ldw	ra,4(sp)
  8028a4:	df000017 	ldw	fp,0(sp)
  8028a8:	dec00204 	addi	sp,sp,8
  8028ac:	f800283a 	ret

008028b0 <CropImage16>:

void CropImage16( short * __restrict__ source_buffer, 
                  short * __restrict__ dest_buffer, 
                  short source_width, short source_height,
                  short crop_left, short crop_right,
                  short crop_top, short crop_bottom,
                  short dest_width, short dest_height )
{
  8028b0:	defff004 	addi	sp,sp,-64
  8028b4:	dfc00f15 	stw	ra,60(sp)
  8028b8:	df000e15 	stw	fp,56(sp)
  8028bc:	df000e04 	addi	fp,sp,56
  8028c0:	e13ff615 	stw	r4,-40(fp)
  8028c4:	e17ff715 	stw	r5,-36(fp)
  8028c8:	e0800217 	ldw	r2,8(fp)
  8028cc:	e0c00317 	ldw	r3,12(fp)
  8028d0:	e1000417 	ldw	r4,16(fp)
  8028d4:	e1400517 	ldw	r5,20(fp)
  8028d8:	e2000617 	ldw	r8,24(fp)
  8028dc:	e2400717 	ldw	r9,28(fp)
  8028e0:	e1bff80d 	sth	r6,-32(fp)
  8028e4:	e1fff90d 	sth	r7,-28(fp)
  8028e8:	e0bffa0d 	sth	r2,-24(fp)
  8028ec:	e0fffb0d 	sth	r3,-20(fp)
  8028f0:	e13ffc0d 	sth	r4,-16(fp)
  8028f4:	e17ffd0d 	sth	r5,-12(fp)
  8028f8:	e23ffe0d 	sth	r8,-8(fp)
  8028fc:	e27fff0d 	sth	r9,-4(fp)
  int y_src, y_dst;
  int y_src_offset = (source_width * crop_top);
  802900:	e0fff80f 	ldh	r3,-32(fp)
  802904:	e0bffc0f 	ldh	r2,-16(fp)
  802908:	1885383a 	mul	r2,r3,r2
  80290c:	e0bff315 	stw	r2,-52(fp)
  int y_dst_offset = 0;
  802910:	e03ff215 	stw	zero,-56(fp)
  
  for( y_src = crop_top, y_dst = 0; 
  802914:	e0bffc0f 	ldh	r2,-16(fp)
  802918:	e0bff515 	stw	r2,-44(fp)
  80291c:	e03ff415 	stw	zero,-48(fp)
       y_src <= ( source_height - crop_bottom - 1 ); 
  802920:	00002306 	br	8029b0 <CropImage16+0x100>
       y_src++, y_dst++, y_src_offset += source_width, y_dst_offset += dest_width )
  {
    memcpy(( dest_buffer + y_dst_offset ), 
  802924:	e0bff217 	ldw	r2,-56(fp)
  802928:	1085883a 	add	r2,r2,r2
  80292c:	1007883a 	mov	r3,r2
  802930:	e0bff717 	ldw	r2,-36(fp)
  802934:	1889883a 	add	r4,r3,r2
  802938:	e0bffa0f 	ldh	r2,-24(fp)
  80293c:	1007883a 	mov	r3,r2
  802940:	e0bff317 	ldw	r2,-52(fp)
  802944:	1885883a 	add	r2,r3,r2
  802948:	1085883a 	add	r2,r2,r2
  80294c:	1007883a 	mov	r3,r2
  802950:	e0bff617 	ldw	r2,-40(fp)
  802954:	188b883a 	add	r5,r3,r2
  802958:	e0fff80f 	ldh	r3,-32(fp)
  80295c:	e0bffa0f 	ldh	r2,-24(fp)
  802960:	1887c83a 	sub	r3,r3,r2
  802964:	e0bffb0f 	ldh	r2,-20(fp)
  802968:	1885c83a 	sub	r2,r3,r2
  80296c:	1085883a 	add	r2,r2,r2
  802970:	100d883a 	mov	r6,r2
  802974:	08048b00 	call	8048b0 <memcpy>
  802978:	e0bff517 	ldw	r2,-44(fp)
  80297c:	10800044 	addi	r2,r2,1
  802980:	e0bff515 	stw	r2,-44(fp)
  802984:	e0bff417 	ldw	r2,-48(fp)
  802988:	10800044 	addi	r2,r2,1
  80298c:	e0bff415 	stw	r2,-48(fp)
  802990:	e0fff80f 	ldh	r3,-32(fp)
  802994:	e0bff317 	ldw	r2,-52(fp)
  802998:	10c5883a 	add	r2,r2,r3
  80299c:	e0bff315 	stw	r2,-52(fp)
  8029a0:	e0fffe0f 	ldh	r3,-8(fp)
  8029a4:	e0bff217 	ldw	r2,-56(fp)
  8029a8:	10c5883a 	add	r2,r2,r3
  8029ac:	e0bff215 	stw	r2,-56(fp)
  8029b0:	e0fff90f 	ldh	r3,-28(fp)
  8029b4:	e0bffd0f 	ldh	r2,-12(fp)
  8029b8:	1885c83a 	sub	r2,r3,r2
  8029bc:	10ffffc4 	addi	r3,r2,-1
  8029c0:	e0bff517 	ldw	r2,-44(fp)
  8029c4:	18bfd70e 	bge	r3,r2,802924 <CropImage16+0x74>
           ( source_buffer + y_src_offset + crop_left ), 
           ((source_width - crop_left - crop_right) << 1));
  }
}
  8029c8:	e037883a 	mov	sp,fp
  8029cc:	dfc00117 	ldw	ra,4(sp)
  8029d0:	df000017 	ldw	fp,0(sp)
  8029d4:	dec00204 	addi	sp,sp,8
  8029d8:	f800283a 	ret

008029dc <main>:
#include "vga_example.h"
#include "io.h"

int main()
{
  8029dc:	defffc04 	addi	sp,sp,-16
  8029e0:	dfc00315 	stw	ra,12(sp)
  8029e4:	df000215 	stw	fp,8(sp)
  8029e8:	df000204 	addi	fp,sp,8
  // VGA Device
  vga_controller_dev* vga;
 
  // VGA frame buffer
  display_frame_buffer_struct* vga_frame_buffer;

  printf("+-----------------------------------------+\n");
  8029ec:	01002074 	movhi	r4,129
  8029f0:	2130b504 	addi	r4,r4,-15660
  8029f4:	08049f00 	call	8049f0 <puts>
  printf("| Nios II VGA Controller Reference Design |\n");
  8029f8:	01002074 	movhi	r4,129
  8029fc:	2130c004 	addi	r4,r4,-15616
  802a00:	08049f00 	call	8049f0 <puts>
  printf("+-----------------------------------------+\n");
  802a04:	01002074 	movhi	r4,129
  802a08:	2130b504 	addi	r4,r4,-15660
  802a0c:	08049f00 	call	8049f0 <puts>

  // Open the VGA controller peripheral and allocate the frame buffers on the heap.
  printf(" - Initializing VGA controller.\n");
  802a10:	01002074 	movhi	r4,129
  802a14:	2130cb04 	addi	r4,r4,-15572
  802a18:	08049f00 	call	8049f0 <puts>
  vga = (vga_controller_dev*)alt_vga_open_dev("/dev/vga_controller");
  802a1c:	01002074 	movhi	r4,129
  802a20:	2130d304 	addi	r4,r4,-15540
  802a24:	0807a600 	call	807a60 <alt_vga_open_dev>
  802a28:	e0bfff15 	stw	r2,-4(fp)
  vga_frame_buffer = vga_init_no_interrupt( vga, HEAP );
  802a2c:	e13fff17 	ldw	r4,-4(fp)
  802a30:	017fffc4 	movi	r5,-1
  802a34:	0807abc0 	call	807abc <vga_init_no_interrupt>
  802a38:	e0bffe15 	stw	r2,-8(fp)
  
  // Run the cube rotation routine.    
  run_rotate( vga_frame_buffer );
  802a3c:	e13ffe17 	ldw	r4,-8(fp)
  802a40:	0803a300 	call	803a30 <run_rotate>
  
  exit(1);
  802a44:	01000044 	movi	r4,1
  802a48:	08041100 	call	804110 <exit>

00802a4c <rotate_point_deg>:
  return 0;
}

// Rotate a point in three dimentions on three axises
void rotate_point_deg( point_3d_struct* in_point, 
                       short rotx, short roty, short rotz, 
                       point_3d_struct axis_unit[3], 
                       point_3d_struct* out_point)
{
  802a4c:	deffeb04 	addi	sp,sp,-84
  802a50:	dfc01415 	stw	ra,80(sp)
  802a54:	df001315 	stw	fp,76(sp)
  802a58:	df001304 	addi	fp,sp,76
  802a5c:	e13ffc15 	stw	r4,-16(fp)
  802a60:	e17ffd0d 	sth	r5,-12(fp)
  802a64:	e1bffe0d 	sth	r6,-8(fp)
  802a68:	e1ffff0d 	sth	r7,-4(fp)
  point_3d_struct temp_point[3];
  
  rotate_point( in_point, rotx, &(axis_unit[0]), &(temp_point[0]) );
  802a6c:	e17ffd0f 	ldh	r5,-12(fp)
  802a70:	e13ffc17 	ldw	r4,-16(fp)
  802a74:	e1800217 	ldw	r6,8(fp)
  802a78:	e1ffed04 	addi	r7,fp,-76
  802a7c:	0802ac40 	call	802ac4 <rotate_point>
  rotate_point( &(temp_point[0]), roty, &(axis_unit[1]), &(temp_point[1]) );
  802a80:	e17ffe0f 	ldh	r5,-8(fp)
  802a84:	e0800217 	ldw	r2,8(fp)
  802a88:	11800504 	addi	r6,r2,20
  802a8c:	e1fff204 	addi	r7,fp,-56
  802a90:	e13fed04 	addi	r4,fp,-76
  802a94:	0802ac40 	call	802ac4 <rotate_point>
  rotate_point( &(temp_point[1]), rotz, &(axis_unit[2]), out_point );
  802a98:	e13ff204 	addi	r4,fp,-56
  802a9c:	e17fff0f 	ldh	r5,-4(fp)
  802aa0:	e0800217 	ldw	r2,8(fp)
  802aa4:	11800a04 	addi	r6,r2,40
  802aa8:	e1c00317 	ldw	r7,12(fp)
  802aac:	0802ac40 	call	802ac4 <rotate_point>
  
}
  802ab0:	e037883a 	mov	sp,fp
  802ab4:	dfc00117 	ldw	ra,4(sp)
  802ab8:	df000017 	ldw	fp,0(sp)
  802abc:	dec00204 	addi	sp,sp,8
  802ac0:	f800283a 	ret

00802ac4 <rotate_point>:

// Rotate a point in three dimentions on one axis
void rotate_point( point_3d_struct* in_point, int angle, point_3d_struct* r, point_3d_struct* out_point)
{
  802ac4:	defff904 	addi	sp,sp,-28
  802ac8:	dfc00615 	stw	ra,24(sp)
  802acc:	df000515 	stw	fp,20(sp)
  802ad0:	df000504 	addi	fp,sp,20
  802ad4:	e13ffc15 	stw	r4,-16(fp)
  802ad8:	e17ffd15 	stw	r5,-12(fp)
  802adc:	e1bffe15 	stw	r6,-8(fp)
  802ae0:	e1ffff15 	stw	r7,-4(fp)
   short int_cos_angle, int_sin_angle;
   
   out_point->x = 0;
  802ae4:	e0bfff17 	ldw	r2,-4(fp)
  802ae8:	10000015 	stw	zero,0(r2)
   out_point->y = 0;
  802aec:	e0bfff17 	ldw	r2,-4(fp)
  802af0:	10000115 	stw	zero,4(r2)
   out_point->z = 0;
  802af4:	e0bfff17 	ldw	r2,-4(fp)
  802af8:	10000215 	stw	zero,8(r2)
   int_cos_angle = int_cos(angle);
  802afc:	e13ffd17 	ldw	r4,-12(fp)
  802b00:	0802f140 	call	802f14 <int_cos>
  802b04:	e0bffb8d 	sth	r2,-18(fp)
   int_sin_angle = int_sin(angle);
  802b08:	e13ffd17 	ldw	r4,-12(fp)
  802b0c:	0802ea00 	call	802ea0 <int_sin>
  802b10:	e0bffb0d 	sth	r2,-20(fp)

   out_point->x += (int_cos_angle + (((((1024 - int_cos_angle) * r->x)>>10) * r->x)>>10)) * in_point->x;
  802b14:	e0bfff17 	ldw	r2,-4(fp)
  802b18:	11000017 	ldw	r4,0(r2)
  802b1c:	e17ffb8f 	ldh	r5,-18(fp)
  802b20:	e0fffb8f 	ldh	r3,-18(fp)
  802b24:	00810004 	movi	r2,1024
  802b28:	10c7c83a 	sub	r3,r2,r3
  802b2c:	e0bffe17 	ldw	r2,-8(fp)
  802b30:	10800017 	ldw	r2,0(r2)
  802b34:	1885383a 	mul	r2,r3,r2
  802b38:	1007d2ba 	srai	r3,r2,10
  802b3c:	e0bffe17 	ldw	r2,-8(fp)
  802b40:	10800017 	ldw	r2,0(r2)
  802b44:	1885383a 	mul	r2,r3,r2
  802b48:	1005d2ba 	srai	r2,r2,10
  802b4c:	2887883a 	add	r3,r5,r2
  802b50:	e0bffc17 	ldw	r2,-16(fp)
  802b54:	10800017 	ldw	r2,0(r2)
  802b58:	1885383a 	mul	r2,r3,r2
  802b5c:	2087883a 	add	r3,r4,r2
  802b60:	e0bfff17 	ldw	r2,-4(fp)
  802b64:	10c00015 	stw	r3,0(r2)
   out_point->x += ((((1024 - int_cos_angle) * r->x * r->y)>>20) - ((r->z * int_sin_angle)>>10)) * in_point->y;
  802b68:	e0bfff17 	ldw	r2,-4(fp)
  802b6c:	11400017 	ldw	r5,0(r2)
  802b70:	e0fffb8f 	ldh	r3,-18(fp)
  802b74:	00810004 	movi	r2,1024
  802b78:	10c7c83a 	sub	r3,r2,r3
  802b7c:	e0bffe17 	ldw	r2,-8(fp)
  802b80:	10800017 	ldw	r2,0(r2)
  802b84:	1887383a 	mul	r3,r3,r2
  802b88:	e0bffe17 	ldw	r2,-8(fp)
  802b8c:	10800117 	ldw	r2,4(r2)
  802b90:	1885383a 	mul	r2,r3,r2
  802b94:	1009d53a 	srai	r4,r2,20
  802b98:	e0bffe17 	ldw	r2,-8(fp)
  802b9c:	10c00217 	ldw	r3,8(r2)
  802ba0:	e0bffb0f 	ldh	r2,-20(fp)
  802ba4:	1885383a 	mul	r2,r3,r2
  802ba8:	1005d2ba 	srai	r2,r2,10
  802bac:	2087c83a 	sub	r3,r4,r2
  802bb0:	e0bffc17 	ldw	r2,-16(fp)
  802bb4:	10800117 	ldw	r2,4(r2)
  802bb8:	1885383a 	mul	r2,r3,r2
  802bbc:	2887883a 	add	r3,r5,r2
  802bc0:	e0bfff17 	ldw	r2,-4(fp)
  802bc4:	10c00015 	stw	r3,0(r2)
   out_point->x += ((((1024 - int_cos_angle) * r->x * r->z)>>20) + ((r->y * int_sin_angle)>>10)) * in_point->z;
  802bc8:	e0bfff17 	ldw	r2,-4(fp)
  802bcc:	11400017 	ldw	r5,0(r2)
  802bd0:	e0fffb8f 	ldh	r3,-18(fp)
  802bd4:	00810004 	movi	r2,1024
  802bd8:	10c7c83a 	sub	r3,r2,r3
  802bdc:	e0bffe17 	ldw	r2,-8(fp)
  802be0:	10800017 	ldw	r2,0(r2)
  802be4:	1887383a 	mul	r3,r3,r2
  802be8:	e0bffe17 	ldw	r2,-8(fp)
  802bec:	10800217 	ldw	r2,8(r2)
  802bf0:	1885383a 	mul	r2,r3,r2
  802bf4:	1009d53a 	srai	r4,r2,20
  802bf8:	e0bffe17 	ldw	r2,-8(fp)
  802bfc:	10c00117 	ldw	r3,4(r2)
  802c00:	e0bffb0f 	ldh	r2,-20(fp)
  802c04:	1885383a 	mul	r2,r3,r2
  802c08:	1005d2ba 	srai	r2,r2,10
  802c0c:	2087883a 	add	r3,r4,r2
  802c10:	e0bffc17 	ldw	r2,-16(fp)
  802c14:	10800217 	ldw	r2,8(r2)
  802c18:	1885383a 	mul	r2,r3,r2
  802c1c:	2887883a 	add	r3,r5,r2
  802c20:	e0bfff17 	ldw	r2,-4(fp)
  802c24:	10c00015 	stw	r3,0(r2)
   out_point->x = out_point->x >> 10;
  802c28:	e0bfff17 	ldw	r2,-4(fp)
  802c2c:	10800017 	ldw	r2,0(r2)
  802c30:	1007d2ba 	srai	r3,r2,10
  802c34:	e0bfff17 	ldw	r2,-4(fp)
  802c38:	10c00015 	stw	r3,0(r2)

   out_point->y += ((((1024 - int_cos_angle) * r->x * r->y)>>20) + ((r->z * int_sin_angle)>>10)) * in_point->x;
  802c3c:	e0bfff17 	ldw	r2,-4(fp)
  802c40:	11400117 	ldw	r5,4(r2)
  802c44:	e0fffb8f 	ldh	r3,-18(fp)
  802c48:	00810004 	movi	r2,1024
  802c4c:	10c7c83a 	sub	r3,r2,r3
  802c50:	e0bffe17 	ldw	r2,-8(fp)
  802c54:	10800017 	ldw	r2,0(r2)
  802c58:	1887383a 	mul	r3,r3,r2
  802c5c:	e0bffe17 	ldw	r2,-8(fp)
  802c60:	10800117 	ldw	r2,4(r2)
  802c64:	1885383a 	mul	r2,r3,r2
  802c68:	1009d53a 	srai	r4,r2,20
  802c6c:	e0bffe17 	ldw	r2,-8(fp)
  802c70:	10c00217 	ldw	r3,8(r2)
  802c74:	e0bffb0f 	ldh	r2,-20(fp)
  802c78:	1885383a 	mul	r2,r3,r2
  802c7c:	1005d2ba 	srai	r2,r2,10
  802c80:	2087883a 	add	r3,r4,r2
  802c84:	e0bffc17 	ldw	r2,-16(fp)
  802c88:	10800017 	ldw	r2,0(r2)
  802c8c:	1885383a 	mul	r2,r3,r2
  802c90:	2887883a 	add	r3,r5,r2
  802c94:	e0bfff17 	ldw	r2,-4(fp)
  802c98:	10c00115 	stw	r3,4(r2)
   out_point->y += (int_cos_angle + (((((1024 - int_cos_angle) * r->y)>>10) * r->y)>>10)) * in_point->y;
  802c9c:	e0bfff17 	ldw	r2,-4(fp)
  802ca0:	11000117 	ldw	r4,4(r2)
  802ca4:	e17ffb8f 	ldh	r5,-18(fp)
  802ca8:	e0fffb8f 	ldh	r3,-18(fp)
  802cac:	00810004 	movi	r2,1024
  802cb0:	10c7c83a 	sub	r3,r2,r3
  802cb4:	e0bffe17 	ldw	r2,-8(fp)
  802cb8:	10800117 	ldw	r2,4(r2)
  802cbc:	1885383a 	mul	r2,r3,r2
  802cc0:	1007d2ba 	srai	r3,r2,10
  802cc4:	e0bffe17 	ldw	r2,-8(fp)
  802cc8:	10800117 	ldw	r2,4(r2)
  802ccc:	1885383a 	mul	r2,r3,r2
  802cd0:	1005d2ba 	srai	r2,r2,10
  802cd4:	2887883a 	add	r3,r5,r2
  802cd8:	e0bffc17 	ldw	r2,-16(fp)
  802cdc:	10800117 	ldw	r2,4(r2)
  802ce0:	1885383a 	mul	r2,r3,r2
  802ce4:	2087883a 	add	r3,r4,r2
  802ce8:	e0bfff17 	ldw	r2,-4(fp)
  802cec:	10c00115 	stw	r3,4(r2)
   out_point->y += ((((1024 - int_cos_angle) * r->y * r->z)>>20) - ((r->x * int_sin_angle)>>10)) * in_point->z;
  802cf0:	e0bfff17 	ldw	r2,-4(fp)
  802cf4:	11400117 	ldw	r5,4(r2)
  802cf8:	e0fffb8f 	ldh	r3,-18(fp)
  802cfc:	00810004 	movi	r2,1024
  802d00:	10c7c83a 	sub	r3,r2,r3
  802d04:	e0bffe17 	ldw	r2,-8(fp)
  802d08:	10800117 	ldw	r2,4(r2)
  802d0c:	1887383a 	mul	r3,r3,r2
  802d10:	e0bffe17 	ldw	r2,-8(fp)
  802d14:	10800217 	ldw	r2,8(r2)
  802d18:	1885383a 	mul	r2,r3,r2
  802d1c:	1009d53a 	srai	r4,r2,20
  802d20:	e0bffe17 	ldw	r2,-8(fp)
  802d24:	10c00017 	ldw	r3,0(r2)
  802d28:	e0bffb0f 	ldh	r2,-20(fp)
  802d2c:	1885383a 	mul	r2,r3,r2
  802d30:	1005d2ba 	srai	r2,r2,10
  802d34:	2087c83a 	sub	r3,r4,r2
  802d38:	e0bffc17 	ldw	r2,-16(fp)
  802d3c:	10800217 	ldw	r2,8(r2)
  802d40:	1885383a 	mul	r2,r3,r2
  802d44:	2887883a 	add	r3,r5,r2
  802d48:	e0bfff17 	ldw	r2,-4(fp)
  802d4c:	10c00115 	stw	r3,4(r2)
   out_point->y = out_point->y >> 10;
  802d50:	e0bfff17 	ldw	r2,-4(fp)
  802d54:	10800117 	ldw	r2,4(r2)
  802d58:	1007d2ba 	srai	r3,r2,10
  802d5c:	e0bfff17 	ldw	r2,-4(fp)
  802d60:	10c00115 	stw	r3,4(r2)

   out_point->z += ((((1024 - int_cos_angle) * r->x * r->z)>>20) - ((r->y * int_sin_angle)>>10)) * in_point->x;
  802d64:	e0bfff17 	ldw	r2,-4(fp)
  802d68:	11400217 	ldw	r5,8(r2)
  802d6c:	e0fffb8f 	ldh	r3,-18(fp)
  802d70:	00810004 	movi	r2,1024
  802d74:	10c7c83a 	sub	r3,r2,r3
  802d78:	e0bffe17 	ldw	r2,-8(fp)
  802d7c:	10800017 	ldw	r2,0(r2)
  802d80:	1887383a 	mul	r3,r3,r2
  802d84:	e0bffe17 	ldw	r2,-8(fp)
  802d88:	10800217 	ldw	r2,8(r2)
  802d8c:	1885383a 	mul	r2,r3,r2
  802d90:	1009d53a 	srai	r4,r2,20
  802d94:	e0bffe17 	ldw	r2,-8(fp)
  802d98:	10c00117 	ldw	r3,4(r2)
  802d9c:	e0bffb0f 	ldh	r2,-20(fp)
  802da0:	1885383a 	mul	r2,r3,r2
  802da4:	1005d2ba 	srai	r2,r2,10
  802da8:	2087c83a 	sub	r3,r4,r2
  802dac:	e0bffc17 	ldw	r2,-16(fp)
  802db0:	10800017 	ldw	r2,0(r2)
  802db4:	1885383a 	mul	r2,r3,r2
  802db8:	2887883a 	add	r3,r5,r2
  802dbc:	e0bfff17 	ldw	r2,-4(fp)
  802dc0:	10c00215 	stw	r3,8(r2)
   out_point->z += ((((1024 - int_cos_angle) * r->y * r->z)>>20) + ((r->x * int_sin_angle)>>10)) * in_point->y;
  802dc4:	e0bfff17 	ldw	r2,-4(fp)
  802dc8:	11400217 	ldw	r5,8(r2)
  802dcc:	e0fffb8f 	ldh	r3,-18(fp)
  802dd0:	00810004 	movi	r2,1024
  802dd4:	10c7c83a 	sub	r3,r2,r3
  802dd8:	e0bffe17 	ldw	r2,-8(fp)
  802ddc:	10800117 	ldw	r2,4(r2)
  802de0:	1887383a 	mul	r3,r3,r2
  802de4:	e0bffe17 	ldw	r2,-8(fp)
  802de8:	10800217 	ldw	r2,8(r2)
  802dec:	1885383a 	mul	r2,r3,r2
  802df0:	1009d53a 	srai	r4,r2,20
  802df4:	e0bffe17 	ldw	r2,-8(fp)
  802df8:	10c00017 	ldw	r3,0(r2)
  802dfc:	e0bffb0f 	ldh	r2,-20(fp)
  802e00:	1885383a 	mul	r2,r3,r2
  802e04:	1005d2ba 	srai	r2,r2,10
  802e08:	2087883a 	add	r3,r4,r2
  802e0c:	e0bffc17 	ldw	r2,-16(fp)
  802e10:	10800117 	ldw	r2,4(r2)
  802e14:	1885383a 	mul	r2,r3,r2
  802e18:	2887883a 	add	r3,r5,r2
  802e1c:	e0bfff17 	ldw	r2,-4(fp)
  802e20:	10c00215 	stw	r3,8(r2)
   out_point->z += (int_cos_angle + (((((1024 - int_cos_angle) * r->z)>>10) * r->z)>>10)) * in_point->z;
  802e24:	e0bfff17 	ldw	r2,-4(fp)
  802e28:	11000217 	ldw	r4,8(r2)
  802e2c:	e17ffb8f 	ldh	r5,-18(fp)
  802e30:	e0fffb8f 	ldh	r3,-18(fp)
  802e34:	00810004 	movi	r2,1024
  802e38:	10c7c83a 	sub	r3,r2,r3
  802e3c:	e0bffe17 	ldw	r2,-8(fp)
  802e40:	10800217 	ldw	r2,8(r2)
  802e44:	1885383a 	mul	r2,r3,r2
  802e48:	1007d2ba 	srai	r3,r2,10
  802e4c:	e0bffe17 	ldw	r2,-8(fp)
  802e50:	10800217 	ldw	r2,8(r2)
  802e54:	1885383a 	mul	r2,r3,r2
  802e58:	1005d2ba 	srai	r2,r2,10
  802e5c:	2887883a 	add	r3,r5,r2
  802e60:	e0bffc17 	ldw	r2,-16(fp)
  802e64:	10800217 	ldw	r2,8(r2)
  802e68:	1885383a 	mul	r2,r3,r2
  802e6c:	2087883a 	add	r3,r4,r2
  802e70:	e0bfff17 	ldw	r2,-4(fp)
  802e74:	10c00215 	stw	r3,8(r2)
   out_point->z = out_point->z >> 10;
  802e78:	e0bfff17 	ldw	r2,-4(fp)
  802e7c:	10800217 	ldw	r2,8(r2)
  802e80:	1007d2ba 	srai	r3,r2,10
  802e84:	e0bfff17 	ldw	r2,-4(fp)
  802e88:	10c00215 	stw	r3,8(r2)

   return;
}
  802e8c:	e037883a 	mov	sp,fp
  802e90:	dfc00117 	ldw	ra,4(sp)
  802e94:	df000017 	ldw	fp,0(sp)
  802e98:	dec00204 	addi	sp,sp,8
  802e9c:	f800283a 	ret

00802ea0 <int_sin>:

// Integer sin lookup
int int_sin( int deg )
{
  802ea0:	defffd04 	addi	sp,sp,-12
  802ea4:	dfc00215 	stw	ra,8(sp)
  802ea8:	df000115 	stw	fp,4(sp)
  802eac:	df000104 	addi	fp,sp,4
  802eb0:	e13fff15 	stw	r4,-4(fp)
  deg %= 360;
  802eb4:	e13fff17 	ldw	r4,-4(fp)
  802eb8:	01405a04 	movi	r5,360
  802ebc:	08040a00 	call	8040a0 <__modsi3>
  802ec0:	e0bfff15 	stw	r2,-4(fp)
  if( deg < 0 )
  802ec4:	e0bfff17 	ldw	r2,-4(fp)
  802ec8:	1004403a 	cmpge	r2,r2,zero
  802ecc:	1000031e 	bne	r2,zero,802edc <int_sin+0x3c>
    deg += 360;
  802ed0:	e0bfff17 	ldw	r2,-4(fp)
  802ed4:	10805a04 	addi	r2,r2,360
  802ed8:	e0bfff15 	stw	r2,-4(fp)
  
  return(int_sin_array[deg]);
  802edc:	e0bfff17 	ldw	r2,-4(fp)
  802ee0:	00c02074 	movhi	r3,129
  802ee4:	18f21404 	addi	r3,r3,-14256
  802ee8:	1085883a 	add	r2,r2,r2
  802eec:	10c5883a 	add	r2,r2,r3
  802ef0:	1080000b 	ldhu	r2,0(r2)
  802ef4:	10bfffcc 	andi	r2,r2,65535
  802ef8:	10a0001c 	xori	r2,r2,32768
  802efc:	10a00004 	addi	r2,r2,-32768
}
  802f00:	e037883a 	mov	sp,fp
  802f04:	dfc00117 	ldw	ra,4(sp)
  802f08:	df000017 	ldw	fp,0(sp)
  802f0c:	dec00204 	addi	sp,sp,8
  802f10:	f800283a 	ret

00802f14 <int_cos>:

// Integer cos lookup
int int_cos( int deg )
{
  802f14:	defffd04 	addi	sp,sp,-12
  802f18:	dfc00215 	stw	ra,8(sp)
  802f1c:	df000115 	stw	fp,4(sp)
  802f20:	df000104 	addi	fp,sp,4
  802f24:	e13fff15 	stw	r4,-4(fp)
  deg %= 360;
  802f28:	e13fff17 	ldw	r4,-4(fp)
  802f2c:	01405a04 	movi	r5,360
  802f30:	08040a00 	call	8040a0 <__modsi3>
  802f34:	e0bfff15 	stw	r2,-4(fp)
  if( deg < 0 )
  802f38:	e0bfff17 	ldw	r2,-4(fp)
  802f3c:	1004403a 	cmpge	r2,r2,zero
  802f40:	1000031e 	bne	r2,zero,802f50 <int_cos+0x3c>
    deg += 360;
  802f44:	e0bfff17 	ldw	r2,-4(fp)
  802f48:	10805a04 	addi	r2,r2,360
  802f4c:	e0bfff15 	stw	r2,-4(fp)
  
  return(int_cos_array[deg]);
  802f50:	e0bfff17 	ldw	r2,-4(fp)
  802f54:	00c02074 	movhi	r3,129
  802f58:	18f2c804 	addi	r3,r3,-13536
  802f5c:	1085883a 	add	r2,r2,r2
  802f60:	10c5883a 	add	r2,r2,r3
  802f64:	1080000b 	ldhu	r2,0(r2)
  802f68:	10bfffcc 	andi	r2,r2,65535
  802f6c:	10a0001c 	xori	r2,r2,32768
  802f70:	10a00004 	addi	r2,r2,-32768
}
  802f74:	e037883a 	mov	sp,fp
  802f78:	dfc00117 	ldw	ra,4(sp)
  802f7c:	df000017 	ldw	fp,0(sp)
  802f80:	dec00204 	addi	sp,sp,8
  802f84:	f800283a 	ret

00802f88 <rotate_cube_points>:

// Rotate the 8 points of a cube
void rotate_cube_points( point_3d_struct base_cube[8],
                         point_3d_struct rotated_cube[8],
                         point_3d_struct axis_unit[3],
                         short rotx, short roty, short rotz )
{
  802f88:	defff504 	addi	sp,sp,-44
  802f8c:	dfc00a15 	stw	ra,40(sp)
  802f90:	df000915 	stw	fp,36(sp)
  802f94:	df000904 	addi	fp,sp,36
  802f98:	e13ffa15 	stw	r4,-24(fp)
  802f9c:	e17ffb15 	stw	r5,-20(fp)
  802fa0:	e1bffc15 	stw	r6,-16(fp)
  802fa4:	e0800217 	ldw	r2,8(fp)
  802fa8:	e0c00317 	ldw	r3,12(fp)
  802fac:	e1fffd0d 	sth	r7,-12(fp)
  802fb0:	e0bffe0d 	sth	r2,-8(fp)
  802fb4:	e0ffff0d 	sth	r3,-4(fp)
  alt_8 i;
  
  for( i = 0; i < 8; i++ )
  802fb8:	e03ff905 	stb	zero,-28(fp)
  802fbc:	00001406 	br	803010 <rotate_cube_points+0x88>
  {
    rotate_point_deg( &(base_cube[i]), rotx, roty, rotz, axis_unit, &(rotated_cube[i]) );
  802fc0:	e0bff907 	ldb	r2,-28(fp)
  802fc4:	10800524 	muli	r2,r2,20
  802fc8:	1007883a 	mov	r3,r2
  802fcc:	e0bffa17 	ldw	r2,-24(fp)
  802fd0:	1889883a 	add	r4,r3,r2
  802fd4:	e17ffd0f 	ldh	r5,-12(fp)
  802fd8:	e1bffe0f 	ldh	r6,-8(fp)
  802fdc:	e1ffff0f 	ldh	r7,-4(fp)
  802fe0:	e0bff907 	ldb	r2,-28(fp)
  802fe4:	10800524 	muli	r2,r2,20
  802fe8:	1007883a 	mov	r3,r2
  802fec:	e0bffb17 	ldw	r2,-20(fp)
  802ff0:	1887883a 	add	r3,r3,r2
  802ff4:	e0bffc17 	ldw	r2,-16(fp)
  802ff8:	d8800015 	stw	r2,0(sp)
  802ffc:	d8c00115 	stw	r3,4(sp)
  803000:	0802a4c0 	call	802a4c <rotate_point_deg>
  803004:	e0bff903 	ldbu	r2,-28(fp)
  803008:	10800044 	addi	r2,r2,1
  80300c:	e0bff905 	stb	r2,-28(fp)
  803010:	e0bff907 	ldb	r2,-28(fp)
  803014:	10800210 	cmplti	r2,r2,8
  803018:	103fe91e 	bne	r2,zero,802fc0 <rotate_cube_points+0x38>
  }
}
  80301c:	e037883a 	mov	sp,fp
  803020:	dfc00117 	ldw	ra,4(sp)
  803024:	df000017 	ldw	fp,0(sp)
  803028:	dec00204 	addi	sp,sp,8
  80302c:	f800283a 	ret

00803030 <draw_filled_cube>:

// Draw a cube with solid sides
void draw_filled_cube( point_3d_struct cube[8], 
                int color,
                display_frame_buffer_struct* vga_frame_buffer )
{
  803030:	deff4d04 	addi	sp,sp,-716
  803034:	dfc0b215 	stw	ra,712(sp)
  803038:	df00b115 	stw	fp,708(sp)
  80303c:	dc00b015 	stw	r16,704(sp)
  803040:	df00b004 	addi	fp,sp,704
  803044:	e13ffd15 	stw	r4,-12(fp)
  803048:	e17ffe15 	stw	r5,-8(fp)
  80304c:	e1bfff15 	stw	r6,-4(fp)
  
  triangle_struct tri[12];
  alt_8 sorted[12] = {0,1,2,3,4,5,6,7,8,9,10,11};
  803050:	e03ffa05 	stb	zero,-24(fp)
  803054:	00800044 	movi	r2,1
  803058:	e0bffa45 	stb	r2,-23(fp)
  80305c:	00800084 	movi	r2,2
  803060:	e0bffa85 	stb	r2,-22(fp)
  803064:	008000c4 	movi	r2,3
  803068:	e0bffac5 	stb	r2,-21(fp)
  80306c:	00800104 	movi	r2,4
  803070:	e0bffb05 	stb	r2,-20(fp)
  803074:	00800144 	movi	r2,5
  803078:	e0bffb45 	stb	r2,-19(fp)
  80307c:	00800184 	movi	r2,6
  803080:	e0bffb85 	stb	r2,-18(fp)
  803084:	008001c4 	movi	r2,7
  803088:	e0bffbc5 	stb	r2,-17(fp)
  80308c:	00800204 	movi	r2,8
  803090:	e0bffc05 	stb	r2,-16(fp)
  803094:	00800244 	movi	r2,9
  803098:	e0bffc45 	stb	r2,-15(fp)
  80309c:	00800284 	movi	r2,10
  8030a0:	e0bffc85 	stb	r2,-14(fp)
  8030a4:	008002c4 	movi	r2,11
  8030a8:	e0bffcc5 	stb	r2,-13(fp)
  
  alt_8 i, j;
  alt_8 temp;
  
  static unsigned int cube_side_color[3] = {RED_16, GREEN_16, BLUE_16};
  
  // Project each point of the cube to 2D
  for( i = 0; i < 8; i++ )
  8030ac:	e03f5185 	stb	zero,-698(fp)
  8030b0:	00000b06 	br	8030e0 <draw_filled_cube+0xb0>
  {
    project( &cube[i], DISTANCE, vga_frame_buffer );
  8030b4:	e0bf5187 	ldb	r2,-698(fp)
  8030b8:	10800524 	muli	r2,r2,20
  8030bc:	1007883a 	mov	r3,r2
  8030c0:	e0bffd17 	ldw	r2,-12(fp)
  8030c4:	1889883a 	add	r4,r3,r2
  8030c8:	01407d04 	movi	r5,500
  8030cc:	e1bfff17 	ldw	r6,-4(fp)
  8030d0:	0803e940 	call	803e94 <project>
  8030d4:	e0bf5183 	ldbu	r2,-698(fp)
  8030d8:	10800044 	addi	r2,r2,1
  8030dc:	e0bf5185 	stb	r2,-698(fp)
  8030e0:	e0bf5187 	ldb	r2,-698(fp)
  8030e4:	10800210 	cmplti	r2,r2,8
  8030e8:	103ff21e 	bne	r2,zero,8030b4 <draw_filled_cube+0x84>
  }

  // plot the triangles that make up the sides
  for( i = 0; i < 12; i++ )
  8030ec:	e03f5185 	stb	zero,-698(fp)
  8030f0:	0000cf06 	br	803430 <draw_filled_cube+0x400>
  {
    tri[i].vertex_x[0] = cube[cube_tris[i][0]].screen_x;
  8030f4:	e17f5187 	ldb	r5,-698(fp)
  8030f8:	e0ff5187 	ldb	r3,-698(fp)
  8030fc:	01002074 	movhi	r4,129
  803100:	21320504 	addi	r4,r4,-14316
  803104:	1805883a 	mov	r2,r3
  803108:	1085883a 	add	r2,r2,r2
  80310c:	10c5883a 	add	r2,r2,r3
  803110:	1105883a 	add	r2,r2,r4
  803114:	10800003 	ldbu	r2,0(r2)
  803118:	10803fcc 	andi	r2,r2,255
  80311c:	1080201c 	xori	r2,r2,128
  803120:	10bfe004 	addi	r2,r2,-128
  803124:	10800524 	muli	r2,r2,20
  803128:	1007883a 	mov	r3,r2
  80312c:	e0bffd17 	ldw	r2,-12(fp)
  803130:	1885883a 	add	r2,r3,r2
  803134:	10c00317 	ldw	r3,12(r2)
  803138:	28800e24 	muli	r2,r5,56
  80313c:	e13f5004 	addi	r4,fp,-704
  803140:	1105883a 	add	r2,r2,r4
  803144:	10800204 	addi	r2,r2,8
  803148:	10c00015 	stw	r3,0(r2)
    tri[i].vertex_y[0] = cube[cube_tris[i][0]].screen_y;
  80314c:	e17f5187 	ldb	r5,-698(fp)
  803150:	e0ff5187 	ldb	r3,-698(fp)
  803154:	01002074 	movhi	r4,129
  803158:	21320504 	addi	r4,r4,-14316
  80315c:	1805883a 	mov	r2,r3
  803160:	1085883a 	add	r2,r2,r2
  803164:	10c5883a 	add	r2,r2,r3
  803168:	1105883a 	add	r2,r2,r4
  80316c:	10800003 	ldbu	r2,0(r2)
  803170:	10803fcc 	andi	r2,r2,255
  803174:	1080201c 	xori	r2,r2,128
  803178:	10bfe004 	addi	r2,r2,-128
  80317c:	10800524 	muli	r2,r2,20
  803180:	1007883a 	mov	r3,r2
  803184:	e0bffd17 	ldw	r2,-12(fp)
  803188:	1885883a 	add	r2,r3,r2
  80318c:	10c00417 	ldw	r3,16(r2)
  803190:	28800e24 	muli	r2,r5,56
  803194:	e13f5004 	addi	r4,fp,-704
  803198:	1105883a 	add	r2,r2,r4
  80319c:	10800504 	addi	r2,r2,20
  8031a0:	10c00015 	stw	r3,0(r2)
    tri[i].vertex_x[1] = cube[cube_tris[i][1]].screen_x;
  8031a4:	e17f5187 	ldb	r5,-698(fp)
  8031a8:	e0ff5187 	ldb	r3,-698(fp)
  8031ac:	01002074 	movhi	r4,129
  8031b0:	21320504 	addi	r4,r4,-14316
  8031b4:	1805883a 	mov	r2,r3
  8031b8:	1085883a 	add	r2,r2,r2
  8031bc:	10c5883a 	add	r2,r2,r3
  8031c0:	1105883a 	add	r2,r2,r4
  8031c4:	10800044 	addi	r2,r2,1
  8031c8:	10800003 	ldbu	r2,0(r2)
  8031cc:	10803fcc 	andi	r2,r2,255
  8031d0:	1080201c 	xori	r2,r2,128
  8031d4:	10bfe004 	addi	r2,r2,-128
  8031d8:	10800524 	muli	r2,r2,20
  8031dc:	1007883a 	mov	r3,r2
  8031e0:	e0bffd17 	ldw	r2,-12(fp)
  8031e4:	1885883a 	add	r2,r3,r2
  8031e8:	10c00317 	ldw	r3,12(r2)
  8031ec:	28800e24 	muli	r2,r5,56
  8031f0:	e13f5004 	addi	r4,fp,-704
  8031f4:	1105883a 	add	r2,r2,r4
  8031f8:	10800304 	addi	r2,r2,12
  8031fc:	10c00015 	stw	r3,0(r2)
    tri[i].vertex_y[1] = cube[cube_tris[i][1]].screen_y;
  803200:	e17f5187 	ldb	r5,-698(fp)
  803204:	e0ff5187 	ldb	r3,-698(fp)
  803208:	01002074 	movhi	r4,129
  80320c:	21320504 	addi	r4,r4,-14316
  803210:	1805883a 	mov	r2,r3
  803214:	1085883a 	add	r2,r2,r2
  803218:	10c5883a 	add	r2,r2,r3
  80321c:	1105883a 	add	r2,r2,r4
  803220:	10800044 	addi	r2,r2,1
  803224:	10800003 	ldbu	r2,0(r2)
  803228:	10803fcc 	andi	r2,r2,255
  80322c:	1080201c 	xori	r2,r2,128
  803230:	10bfe004 	addi	r2,r2,-128
  803234:	10800524 	muli	r2,r2,20
  803238:	1007883a 	mov	r3,r2
  80323c:	e0bffd17 	ldw	r2,-12(fp)
  803240:	1885883a 	add	r2,r3,r2
  803244:	10c00417 	ldw	r3,16(r2)
  803248:	28800e24 	muli	r2,r5,56
  80324c:	e13f5004 	addi	r4,fp,-704
  803250:	1105883a 	add	r2,r2,r4
  803254:	10800604 	addi	r2,r2,24
  803258:	10c00015 	stw	r3,0(r2)
    tri[i].vertex_x[2] = cube[cube_tris[i][2]].screen_x;
  80325c:	e17f5187 	ldb	r5,-698(fp)
  803260:	e0ff5187 	ldb	r3,-698(fp)
  803264:	01002074 	movhi	r4,129
  803268:	21320504 	addi	r4,r4,-14316
  80326c:	1805883a 	mov	r2,r3
  803270:	1085883a 	add	r2,r2,r2
  803274:	10c5883a 	add	r2,r2,r3
  803278:	1105883a 	add	r2,r2,r4
  80327c:	10800084 	addi	r2,r2,2
  803280:	10800003 	ldbu	r2,0(r2)
  803284:	10803fcc 	andi	r2,r2,255
  803288:	1080201c 	xori	r2,r2,128
  80328c:	10bfe004 	addi	r2,r2,-128
  803290:	10800524 	muli	r2,r2,20
  803294:	1007883a 	mov	r3,r2
  803298:	e0bffd17 	ldw	r2,-12(fp)
  80329c:	1885883a 	add	r2,r3,r2
  8032a0:	10c00317 	ldw	r3,12(r2)
  8032a4:	28800e24 	muli	r2,r5,56
  8032a8:	e13f5004 	addi	r4,fp,-704
  8032ac:	1105883a 	add	r2,r2,r4
  8032b0:	10800404 	addi	r2,r2,16
  8032b4:	10c00015 	stw	r3,0(r2)
    tri[i].vertex_y[2] = cube[cube_tris[i][2]].screen_y;
  8032b8:	e17f5187 	ldb	r5,-698(fp)
  8032bc:	e0ff5187 	ldb	r3,-698(fp)
  8032c0:	01002074 	movhi	r4,129
  8032c4:	21320504 	addi	r4,r4,-14316
  8032c8:	1805883a 	mov	r2,r3
  8032cc:	1085883a 	add	r2,r2,r2
  8032d0:	10c5883a 	add	r2,r2,r3
  8032d4:	1105883a 	add	r2,r2,r4
  8032d8:	10800084 	addi	r2,r2,2
  8032dc:	10800003 	ldbu	r2,0(r2)
  8032e0:	10803fcc 	andi	r2,r2,255
  8032e4:	1080201c 	xori	r2,r2,128
  8032e8:	10bfe004 	addi	r2,r2,-128
  8032ec:	10800524 	muli	r2,r2,20
  8032f0:	1007883a 	mov	r3,r2
  8032f4:	e0bffd17 	ldw	r2,-12(fp)
  8032f8:	1885883a 	add	r2,r3,r2
  8032fc:	10c00417 	ldw	r3,16(r2)
  803300:	28800e24 	muli	r2,r5,56
  803304:	e13f5004 	addi	r4,fp,-704
  803308:	1105883a 	add	r2,r2,r4
  80330c:	10800704 	addi	r2,r2,28
  803310:	10c00015 	stw	r3,0(r2)
    tri[i].center_z = (cube[cube_tris[i][0]].z +
  803314:	e43f5187 	ldb	r16,-698(fp)
  803318:	e0ff5187 	ldb	r3,-698(fp)
  80331c:	01002074 	movhi	r4,129
  803320:	21320504 	addi	r4,r4,-14316
  803324:	1805883a 	mov	r2,r3
  803328:	1085883a 	add	r2,r2,r2
  80332c:	10c5883a 	add	r2,r2,r3
  803330:	1105883a 	add	r2,r2,r4
  803334:	10800003 	ldbu	r2,0(r2)
  803338:	10803fcc 	andi	r2,r2,255
  80333c:	1080201c 	xori	r2,r2,128
  803340:	10bfe004 	addi	r2,r2,-128
  803344:	10800524 	muli	r2,r2,20
  803348:	1007883a 	mov	r3,r2
  80334c:	e0bffd17 	ldw	r2,-12(fp)
  803350:	1885883a 	add	r2,r3,r2
  803354:	11400217 	ldw	r5,8(r2)
  803358:	e0ff5187 	ldb	r3,-698(fp)
  80335c:	01002074 	movhi	r4,129
  803360:	21320504 	addi	r4,r4,-14316
  803364:	1805883a 	mov	r2,r3
  803368:	1085883a 	add	r2,r2,r2
  80336c:	10c5883a 	add	r2,r2,r3
  803370:	1105883a 	add	r2,r2,r4
  803374:	10800044 	addi	r2,r2,1
  803378:	10800003 	ldbu	r2,0(r2)
  80337c:	10803fcc 	andi	r2,r2,255
  803380:	1080201c 	xori	r2,r2,128
  803384:	10bfe004 	addi	r2,r2,-128
  803388:	10800524 	muli	r2,r2,20
  80338c:	1007883a 	mov	r3,r2
  803390:	e0bffd17 	ldw	r2,-12(fp)
  803394:	1885883a 	add	r2,r3,r2
  803398:	10800217 	ldw	r2,8(r2)
  80339c:	288b883a 	add	r5,r5,r2
  8033a0:	e0ff5187 	ldb	r3,-698(fp)
  8033a4:	01002074 	movhi	r4,129
  8033a8:	21320504 	addi	r4,r4,-14316
  8033ac:	1805883a 	mov	r2,r3
  8033b0:	1085883a 	add	r2,r2,r2
  8033b4:	10c5883a 	add	r2,r2,r3
  8033b8:	1105883a 	add	r2,r2,r4
  8033bc:	10800084 	addi	r2,r2,2
  8033c0:	10800003 	ldbu	r2,0(r2)
  8033c4:	10803fcc 	andi	r2,r2,255
  8033c8:	1080201c 	xori	r2,r2,128
  8033cc:	10bfe004 	addi	r2,r2,-128
  8033d0:	10800524 	muli	r2,r2,20
  8033d4:	1007883a 	mov	r3,r2
  8033d8:	e0bffd17 	ldw	r2,-12(fp)
  8033dc:	1885883a 	add	r2,r3,r2
  8033e0:	10800217 	ldw	r2,8(r2)
  8033e4:	2889883a 	add	r4,r5,r2
  8033e8:	014000c4 	movi	r5,3
  8033ec:	08040400 	call	804040 <__divsi3>
  8033f0:	1007883a 	mov	r3,r2
  8033f4:	80800e24 	muli	r2,r16,56
  8033f8:	e13f5004 	addi	r4,fp,-704
  8033fc:	1105883a 	add	r2,r2,r4
  803400:	10800e04 	addi	r2,r2,56
  803404:	10c00015 	stw	r3,0(r2)
                       cube[cube_tris[i][1]].z +
                       cube[cube_tris[i][2]].z ) / 3;
    tri[i].fill = DO_FILL;
  803408:	e0bf5187 	ldb	r2,-698(fp)
  80340c:	10800e24 	muli	r2,r2,56
  803410:	e0ff5004 	addi	r3,fp,-704
  803414:	10c5883a 	add	r2,r2,r3
  803418:	10c00d04 	addi	r3,r2,52
  80341c:	00800044 	movi	r2,1
  803420:	18800015 	stw	r2,0(r3)
  803424:	e0bf5183 	ldbu	r2,-698(fp)
  803428:	10800044 	addi	r2,r2,1
  80342c:	e0bf5185 	stb	r2,-698(fp)
  803430:	e0bf5187 	ldb	r2,-698(fp)
  803434:	10800310 	cmplti	r2,r2,12
  803438:	103f2e1e 	bne	r2,zero,8030f4 <draw_filled_cube+0xc4>
  }

  // Make cube three colors.
  for( i = 0; i < 4; i++ )
  80343c:	e03f5185 	stb	zero,-698(fp)
  803440:	00002906 	br	8034e8 <draw_filled_cube+0x4b8>
  {
    tri[i].col = color & cube_side_color[0];
  803444:	e13f5187 	ldb	r4,-698(fp)
  803448:	00802074 	movhi	r2,129
  80344c:	10b37c04 	addi	r2,r2,-12816
  803450:	10c00017 	ldw	r3,0(r2)
  803454:	e0bffe17 	ldw	r2,-8(fp)
  803458:	1884703a 	and	r2,r3,r2
  80345c:	1007883a 	mov	r3,r2
  803460:	20800e24 	muli	r2,r4,56
  803464:	e13f5004 	addi	r4,fp,-704
  803468:	1105883a 	add	r2,r2,r4
  80346c:	10800c04 	addi	r2,r2,48
  803470:	10c00015 	stw	r3,0(r2)
    tri[i+4].col = color & cube_side_color[1];
  803474:	e0bf5187 	ldb	r2,-698(fp)
  803478:	11000104 	addi	r4,r2,4
  80347c:	00802074 	movhi	r2,129
  803480:	10b37c04 	addi	r2,r2,-12816
  803484:	10c00117 	ldw	r3,4(r2)
  803488:	e0bffe17 	ldw	r2,-8(fp)
  80348c:	1884703a 	and	r2,r3,r2
  803490:	1007883a 	mov	r3,r2
  803494:	20800e24 	muli	r2,r4,56
  803498:	e13f5004 	addi	r4,fp,-704
  80349c:	1105883a 	add	r2,r2,r4
  8034a0:	10800c04 	addi	r2,r2,48
  8034a4:	10c00015 	stw	r3,0(r2)
    tri[i+8].col = color & cube_side_color[2];
  8034a8:	e0bf5187 	ldb	r2,-698(fp)
  8034ac:	11000204 	addi	r4,r2,8
  8034b0:	00802074 	movhi	r2,129
  8034b4:	10b37c04 	addi	r2,r2,-12816
  8034b8:	10c00217 	ldw	r3,8(r2)
  8034bc:	e0bffe17 	ldw	r2,-8(fp)
  8034c0:	1884703a 	and	r2,r3,r2
  8034c4:	1007883a 	mov	r3,r2
  8034c8:	20800e24 	muli	r2,r4,56
  8034cc:	e13f5004 	addi	r4,fp,-704
  8034d0:	1105883a 	add	r2,r2,r4
  8034d4:	10800c04 	addi	r2,r2,48
  8034d8:	10c00015 	stw	r3,0(r2)
  8034dc:	e0bf5183 	ldbu	r2,-698(fp)
  8034e0:	10800044 	addi	r2,r2,1
  8034e4:	e0bf5185 	stb	r2,-698(fp)
  8034e8:	e0bf5187 	ldb	r2,-698(fp)
  8034ec:	10800110 	cmplti	r2,r2,4
  8034f0:	103fd41e 	bne	r2,zero,803444 <draw_filled_cube+0x414>
  }
  
  
  // Sort triangles by z center.  This lets us know which ones are in the foreground
  for( i = 0; i < 12-2; i+=2 )
  8034f4:	e03f5185 	stb	zero,-698(fp)
  8034f8:	00007406 	br	8036cc <draw_filled_cube+0x69c>
  {
    for( j = i+2; j < 12; j+=2 )
  8034fc:	e0bf5183 	ldbu	r2,-698(fp)
  803500:	10800084 	addi	r2,r2,2
  803504:	e0bf5145 	stb	r2,-699(fp)
  803508:	00006a06 	br	8036b4 <draw_filled_cube+0x684>
    {
      short square_center_z_j = (tri[sorted[j]].center_z + tri[sorted[j+1]].center_z) / 2;
  80350c:	e0ff5147 	ldb	r3,-699(fp)
  803510:	e0bffa04 	addi	r2,fp,-24
  803514:	10c5883a 	add	r2,r2,r3
  803518:	10800003 	ldbu	r2,0(r2)
  80351c:	10803fcc 	andi	r2,r2,255
  803520:	1080201c 	xori	r2,r2,128
  803524:	10bfe004 	addi	r2,r2,-128
  803528:	10800e24 	muli	r2,r2,56
  80352c:	e0ff5004 	addi	r3,fp,-704
  803530:	10c5883a 	add	r2,r2,r3
  803534:	10800e04 	addi	r2,r2,56
  803538:	11000017 	ldw	r4,0(r2)
  80353c:	e0bf5147 	ldb	r2,-699(fp)
  803540:	10c00044 	addi	r3,r2,1
  803544:	e0bffa04 	addi	r2,fp,-24
  803548:	10c5883a 	add	r2,r2,r3
  80354c:	10800003 	ldbu	r2,0(r2)
  803550:	10803fcc 	andi	r2,r2,255
  803554:	1080201c 	xori	r2,r2,128
  803558:	10bfe004 	addi	r2,r2,-128
  80355c:	10800e24 	muli	r2,r2,56
  803560:	e0ff5004 	addi	r3,fp,-704
  803564:	10c5883a 	add	r2,r2,r3
  803568:	10800e04 	addi	r2,r2,56
  80356c:	10800017 	ldw	r2,0(r2)
  803570:	2087883a 	add	r3,r4,r2
  803574:	1804d7fa 	srli	r2,r3,31
  803578:	10c5883a 	add	r2,r2,r3
  80357c:	1005d07a 	srai	r2,r2,1
  803580:	e0bf508d 	sth	r2,-702(fp)
      short square_center_z_i = (tri[sorted[i]].center_z + tri[sorted[i+1]].center_z) / 2;
  803584:	e0ff5187 	ldb	r3,-698(fp)
  803588:	e0bffa04 	addi	r2,fp,-24
  80358c:	10c5883a 	add	r2,r2,r3
  803590:	10800003 	ldbu	r2,0(r2)
  803594:	10803fcc 	andi	r2,r2,255
  803598:	1080201c 	xori	r2,r2,128
  80359c:	10bfe004 	addi	r2,r2,-128
  8035a0:	10800e24 	muli	r2,r2,56
  8035a4:	e13f5004 	addi	r4,fp,-704
  8035a8:	1105883a 	add	r2,r2,r4
  8035ac:	10800e04 	addi	r2,r2,56
  8035b0:	11000017 	ldw	r4,0(r2)
  8035b4:	e0bf5187 	ldb	r2,-698(fp)
  8035b8:	10c00044 	addi	r3,r2,1
  8035bc:	e0bffa04 	addi	r2,fp,-24
  8035c0:	10c5883a 	add	r2,r2,r3
  8035c4:	10800003 	ldbu	r2,0(r2)
  8035c8:	10803fcc 	andi	r2,r2,255
  8035cc:	1080201c 	xori	r2,r2,128
  8035d0:	10bfe004 	addi	r2,r2,-128
  8035d4:	10800e24 	muli	r2,r2,56
  8035d8:	e0ff5004 	addi	r3,fp,-704
  8035dc:	10c5883a 	add	r2,r2,r3
  8035e0:	10800e04 	addi	r2,r2,56
  8035e4:	10800017 	ldw	r2,0(r2)
  8035e8:	2087883a 	add	r3,r4,r2
  8035ec:	1804d7fa 	srli	r2,r3,31
  8035f0:	10c5883a 	add	r2,r2,r3
  8035f4:	1005d07a 	srai	r2,r2,1
  8035f8:	e0bf500d 	sth	r2,-704(fp)
      if( square_center_z_j < square_center_z_i )
  8035fc:	e0ff508f 	ldh	r3,-702(fp)
  803600:	e0bf500f 	ldh	r2,-704(fp)
  803604:	1880280e 	bge	r3,r2,8036a8 <draw_filled_cube+0x678>
      {
        temp = sorted[i];
  803608:	e0ff5187 	ldb	r3,-698(fp)
  80360c:	e0bffa04 	addi	r2,fp,-24
  803610:	10c5883a 	add	r2,r2,r3
  803614:	10800003 	ldbu	r2,0(r2)
  803618:	e0bf5105 	stb	r2,-700(fp)
        sorted[i] = sorted[j];
  80361c:	e13f5187 	ldb	r4,-698(fp)
  803620:	e0ff5147 	ldb	r3,-699(fp)
  803624:	e0bffa04 	addi	r2,fp,-24
  803628:	10c5883a 	add	r2,r2,r3
  80362c:	10c00003 	ldbu	r3,0(r2)
  803630:	e0bffa04 	addi	r2,fp,-24
  803634:	1105883a 	add	r2,r2,r4
  803638:	10c00005 	stb	r3,0(r2)
        sorted[j] = temp;
  80363c:	e0ff5147 	ldb	r3,-699(fp)
  803640:	e0bffa04 	addi	r2,fp,-24
  803644:	10c7883a 	add	r3,r2,r3
  803648:	e0bf5103 	ldbu	r2,-700(fp)
  80364c:	18800005 	stb	r2,0(r3)
        temp = sorted[i+1];
  803650:	e0bf5187 	ldb	r2,-698(fp)
  803654:	10c00044 	addi	r3,r2,1
  803658:	e0bffa04 	addi	r2,fp,-24
  80365c:	10c5883a 	add	r2,r2,r3
  803660:	10800003 	ldbu	r2,0(r2)
  803664:	e0bf5105 	stb	r2,-700(fp)
        sorted[i+1] = sorted[j+1];
  803668:	e0bf5187 	ldb	r2,-698(fp)
  80366c:	11000044 	addi	r4,r2,1
  803670:	e0bf5147 	ldb	r2,-699(fp)
  803674:	10c00044 	addi	r3,r2,1
  803678:	e0bffa04 	addi	r2,fp,-24
  80367c:	10c5883a 	add	r2,r2,r3
  803680:	10c00003 	ldbu	r3,0(r2)
  803684:	e0bffa04 	addi	r2,fp,-24
  803688:	1105883a 	add	r2,r2,r4
  80368c:	10c00005 	stb	r3,0(r2)
        sorted[j+1] = temp;
  803690:	e0bf5147 	ldb	r2,-699(fp)
  803694:	10c00044 	addi	r3,r2,1
  803698:	e0bffa04 	addi	r2,fp,-24
  80369c:	10c7883a 	add	r3,r2,r3
  8036a0:	e0bf5103 	ldbu	r2,-700(fp)
  8036a4:	18800005 	stb	r2,0(r3)
  8036a8:	e0bf5143 	ldbu	r2,-699(fp)
  8036ac:	10800084 	addi	r2,r2,2
  8036b0:	e0bf5145 	stb	r2,-699(fp)
  8036b4:	e0bf5147 	ldb	r2,-699(fp)
  8036b8:	10800310 	cmplti	r2,r2,12
  8036bc:	103f931e 	bne	r2,zero,80350c <draw_filled_cube+0x4dc>
  8036c0:	e0bf5183 	ldbu	r2,-698(fp)
  8036c4:	10800084 	addi	r2,r2,2
  8036c8:	e0bf5185 	stb	r2,-698(fp)
  8036cc:	e0bf5187 	ldb	r2,-698(fp)
  8036d0:	10800290 	cmplti	r2,r2,10
  8036d4:	103f891e 	bne	r2,zero,8034fc <draw_filled_cube+0x4cc>
      }
    }
  } 
  
  // Display the closest 6 triangles.  The others are hidden anyway, so dont draw them
  for( i = 5; i >= 0; i-- )
  8036d8:	00800144 	movi	r2,5
  8036dc:	e0bf5185 	stb	r2,-698(fp)
  8036e0:	00000f06 	br	803720 <draw_filled_cube+0x6f0>
  {
    vid_draw_triangle( &tri[sorted[i]], vga_frame_buffer );
  8036e4:	e0ff5187 	ldb	r3,-698(fp)
  8036e8:	e0bffa04 	addi	r2,fp,-24
  8036ec:	10c5883a 	add	r2,r2,r3
  8036f0:	10800003 	ldbu	r2,0(r2)
  8036f4:	10803fcc 	andi	r2,r2,255
  8036f8:	1080201c 	xori	r2,r2,128
  8036fc:	10bfe004 	addi	r2,r2,-128
  803700:	10800e24 	muli	r2,r2,56
  803704:	e13f5204 	addi	r4,fp,-696
  803708:	2089883a 	add	r4,r4,r2
  80370c:	e17fff17 	ldw	r5,-4(fp)
  803710:	080248c0 	call	80248c <vid_draw_triangle>
  803714:	e0bf5183 	ldbu	r2,-698(fp)
  803718:	10bfffc4 	addi	r2,r2,-1
  80371c:	e0bf5185 	stb	r2,-698(fp)
  803720:	e0bf5187 	ldb	r2,-698(fp)
  803724:	1004403a 	cmpge	r2,r2,zero
  803728:	103fee1e 	bne	r2,zero,8036e4 <draw_filled_cube+0x6b4>
  }
}
  80372c:	e037883a 	mov	sp,fp
  803730:	dfc00217 	ldw	ra,8(sp)
  803734:	df000117 	ldw	fp,4(sp)
  803738:	dc000017 	ldw	r16,0(sp)
  80373c:	dec00304 	addi	sp,sp,12
  803740:	f800283a 	ret

00803744 <draw_cube_skeleton>:
  
// Draw a cube with just lines. 
void draw_cube_skeleton( point_3d_struct cube[8], 
                int color,
                display_frame_buffer_struct* vga_frame_buffer )
{
  803744:	defff704 	addi	sp,sp,-36
  803748:	dfc00815 	stw	ra,32(sp)
  80374c:	df000715 	stw	fp,28(sp)
  803750:	df000704 	addi	fp,sp,28
  803754:	e13ffd15 	stw	r4,-12(fp)
  803758:	e17ffe15 	stw	r5,-8(fp)
  80375c:	e1bfff15 	stw	r6,-4(fp)
  alt_8 i;
  
  // Project each point of the cube to 2D
  for( i = 0; i < 8; i++ )
  803760:	e03ffc05 	stb	zero,-16(fp)
  803764:	00000b06 	br	803794 <draw_cube_skeleton+0x50>
  {
    project( &cube[i], DISTANCE, vga_frame_buffer );
  803768:	e0bffc07 	ldb	r2,-16(fp)
  80376c:	10800524 	muli	r2,r2,20
  803770:	1007883a 	mov	r3,r2
  803774:	e0bffd17 	ldw	r2,-12(fp)
  803778:	1889883a 	add	r4,r3,r2
  80377c:	01407d04 	movi	r5,500
  803780:	e1bfff17 	ldw	r6,-4(fp)
  803784:	0803e940 	call	803e94 <project>
  803788:	e0bffc03 	ldbu	r2,-16(fp)
  80378c:	10800044 	addi	r2,r2,1
  803790:	e0bffc05 	stb	r2,-16(fp)
  803794:	e0bffc07 	ldb	r2,-16(fp)
  803798:	10800210 	cmplti	r2,r2,8
  80379c:	103ff21e 	bne	r2,zero,803768 <draw_cube_skeleton+0x24>
  }

  // Draw each edge of the cube (it has 12)
  for( i = 0; i < 12; i++ )
  8037a0:	e03ffc05 	stb	zero,-16(fp)
  8037a4:	00004406 	br	8038b8 <draw_cube_skeleton+0x174>
  {
    vid_draw_line( cube[cube_lines[i][0]].screen_x,
  8037a8:	e0bffc07 	ldb	r2,-16(fp)
  8037ac:	00c02074 	movhi	r3,129
  8037b0:	18f20e04 	addi	r3,r3,-14280
  8037b4:	1085883a 	add	r2,r2,r2
  8037b8:	10c5883a 	add	r2,r2,r3
  8037bc:	10800003 	ldbu	r2,0(r2)
  8037c0:	10803fcc 	andi	r2,r2,255
  8037c4:	1080201c 	xori	r2,r2,128
  8037c8:	10bfe004 	addi	r2,r2,-128
  8037cc:	10800524 	muli	r2,r2,20
  8037d0:	1007883a 	mov	r3,r2
  8037d4:	e0bffd17 	ldw	r2,-12(fp)
  8037d8:	1885883a 	add	r2,r3,r2
  8037dc:	11000317 	ldw	r4,12(r2)
  8037e0:	e0bffc07 	ldb	r2,-16(fp)
  8037e4:	00c02074 	movhi	r3,129
  8037e8:	18f20e04 	addi	r3,r3,-14280
  8037ec:	1085883a 	add	r2,r2,r2
  8037f0:	10c5883a 	add	r2,r2,r3
  8037f4:	10800003 	ldbu	r2,0(r2)
  8037f8:	10803fcc 	andi	r2,r2,255
  8037fc:	1080201c 	xori	r2,r2,128
  803800:	10bfe004 	addi	r2,r2,-128
  803804:	10800524 	muli	r2,r2,20
  803808:	1007883a 	mov	r3,r2
  80380c:	e0bffd17 	ldw	r2,-12(fp)
  803810:	1885883a 	add	r2,r3,r2
  803814:	11400417 	ldw	r5,16(r2)
  803818:	e0bffc07 	ldb	r2,-16(fp)
  80381c:	00c02074 	movhi	r3,129
  803820:	18f20e04 	addi	r3,r3,-14280
  803824:	1085883a 	add	r2,r2,r2
  803828:	10c5883a 	add	r2,r2,r3
  80382c:	10800044 	addi	r2,r2,1
  803830:	10800003 	ldbu	r2,0(r2)
  803834:	10803fcc 	andi	r2,r2,255
  803838:	1080201c 	xori	r2,r2,128
  80383c:	10bfe004 	addi	r2,r2,-128
  803840:	10800524 	muli	r2,r2,20
  803844:	1007883a 	mov	r3,r2
  803848:	e0bffd17 	ldw	r2,-12(fp)
  80384c:	1885883a 	add	r2,r3,r2
  803850:	11800317 	ldw	r6,12(r2)
  803854:	e0bffc07 	ldb	r2,-16(fp)
  803858:	00c02074 	movhi	r3,129
  80385c:	18f20e04 	addi	r3,r3,-14280
  803860:	1085883a 	add	r2,r2,r2
  803864:	10c5883a 	add	r2,r2,r3
  803868:	10800044 	addi	r2,r2,1
  80386c:	10800003 	ldbu	r2,0(r2)
  803870:	10803fcc 	andi	r2,r2,255
  803874:	1080201c 	xori	r2,r2,128
  803878:	10bfe004 	addi	r2,r2,-128
  80387c:	10800524 	muli	r2,r2,20
  803880:	1007883a 	mov	r3,r2
  803884:	e0bffd17 	ldw	r2,-12(fp)
  803888:	1885883a 	add	r2,r3,r2
  80388c:	11c00417 	ldw	r7,16(r2)
  803890:	00800044 	movi	r2,1
  803894:	d8800015 	stw	r2,0(sp)
  803898:	e0bffe17 	ldw	r2,-8(fp)
  80389c:	d8800115 	stw	r2,4(sp)
  8038a0:	e0bfff17 	ldw	r2,-4(fp)
  8038a4:	d8800215 	stw	r2,8(sp)
  8038a8:	08002000 	call	800200 <vid_draw_line>
  8038ac:	e0bffc03 	ldbu	r2,-16(fp)
  8038b0:	10800044 	addi	r2,r2,1
  8038b4:	e0bffc05 	stb	r2,-16(fp)
  8038b8:	e0bffc07 	ldb	r2,-16(fp)
  8038bc:	10800310 	cmplti	r2,r2,12
  8038c0:	103fb91e 	bne	r2,zero,8037a8 <draw_cube_skeleton+0x64>
                   cube[cube_lines[i][0]].screen_y,
                   cube[cube_lines[i][1]].screen_x,
                   cube[cube_lines[i][1]].screen_y,
                   1, color , vga_frame_buffer);
  }
}
  8038c4:	e037883a 	mov	sp,fp
  8038c8:	dfc00117 	ldw	ra,4(sp)
  8038cc:	df000017 	ldw	fp,0(sp)
  8038d0:	dec00204 	addi	sp,sp,8
  8038d4:	f800283a 	ret

008038d8 <resize_cube>:

// Increase or decrease the size of a cube
int resize_cube( point_3d_struct cube[8], int magnitude )
{
  8038d8:	defffc04 	addi	sp,sp,-16
  8038dc:	df000315 	stw	fp,12(sp)
  8038e0:	df000304 	addi	fp,sp,12
  8038e4:	e13ffe15 	stw	r4,-8(fp)
  8038e8:	e17fff15 	stw	r5,-4(fp)
  alt_8 i;
  
  // Define the 8 points of a cube
  for(i = 0; i < 8; i++ )
  8038ec:	e03ffd05 	stb	zero,-12(fp)
  8038f0:	00004706 	br	803a10 <resize_cube+0x138>
  {
    cube[i].x += (((i >> 0) & 0x1) * 2 * magnitude) + (-magnitude);
  8038f4:	e0bffd07 	ldb	r2,-12(fp)
  8038f8:	10800524 	muli	r2,r2,20
  8038fc:	1007883a 	mov	r3,r2
  803900:	e0bffe17 	ldw	r2,-8(fp)
  803904:	188b883a 	add	r5,r3,r2
  803908:	e0bffd07 	ldb	r2,-12(fp)
  80390c:	10800524 	muli	r2,r2,20
  803910:	1007883a 	mov	r3,r2
  803914:	e0bffe17 	ldw	r2,-8(fp)
  803918:	1885883a 	add	r2,r3,r2
  80391c:	11000017 	ldw	r4,0(r2)
  803920:	e0bffd03 	ldbu	r2,-12(fp)
  803924:	10803fcc 	andi	r2,r2,255
  803928:	10c0004c 	andi	r3,r2,1
  80392c:	e0bfff17 	ldw	r2,-4(fp)
  803930:	1885383a 	mul	r2,r3,r2
  803934:	1085883a 	add	r2,r2,r2
  803938:	1007883a 	mov	r3,r2
  80393c:	e0bfff17 	ldw	r2,-4(fp)
  803940:	1885c83a 	sub	r2,r3,r2
  803944:	2085883a 	add	r2,r4,r2
  803948:	28800015 	stw	r2,0(r5)
    cube[i].y += (((i >> 1) & 0x1) * 2 * magnitude) + (-magnitude);
  80394c:	e0bffd07 	ldb	r2,-12(fp)
  803950:	10800524 	muli	r2,r2,20
  803954:	1007883a 	mov	r3,r2
  803958:	e0bffe17 	ldw	r2,-8(fp)
  80395c:	1889883a 	add	r4,r3,r2
  803960:	e0bffd07 	ldb	r2,-12(fp)
  803964:	10800524 	muli	r2,r2,20
  803968:	1007883a 	mov	r3,r2
  80396c:	e0bffe17 	ldw	r2,-8(fp)
  803970:	1885883a 	add	r2,r3,r2
  803974:	11400117 	ldw	r5,4(r2)
  803978:	e0bffd07 	ldb	r2,-12(fp)
  80397c:	1005d07a 	srai	r2,r2,1
  803980:	10803fcc 	andi	r2,r2,255
  803984:	10c0004c 	andi	r3,r2,1
  803988:	e0bfff17 	ldw	r2,-4(fp)
  80398c:	1885383a 	mul	r2,r3,r2
  803990:	1085883a 	add	r2,r2,r2
  803994:	1007883a 	mov	r3,r2
  803998:	e0bfff17 	ldw	r2,-4(fp)
  80399c:	1885c83a 	sub	r2,r3,r2
  8039a0:	2885883a 	add	r2,r5,r2
  8039a4:	20800115 	stw	r2,4(r4)
    cube[i].z += (((i >> 2) & 0x1) * 2 * magnitude) + (-magnitude);
  8039a8:	e0bffd07 	ldb	r2,-12(fp)
  8039ac:	10800524 	muli	r2,r2,20
  8039b0:	1007883a 	mov	r3,r2
  8039b4:	e0bffe17 	ldw	r2,-8(fp)
  8039b8:	1889883a 	add	r4,r3,r2
  8039bc:	e0bffd07 	ldb	r2,-12(fp)
  8039c0:	10800524 	muli	r2,r2,20
  8039c4:	1007883a 	mov	r3,r2
  8039c8:	e0bffe17 	ldw	r2,-8(fp)
  8039cc:	1885883a 	add	r2,r3,r2
  8039d0:	11400217 	ldw	r5,8(r2)
  8039d4:	e0bffd07 	ldb	r2,-12(fp)
  8039d8:	1005d0ba 	srai	r2,r2,2
  8039dc:	10803fcc 	andi	r2,r2,255
  8039e0:	10c0004c 	andi	r3,r2,1
  8039e4:	e0bfff17 	ldw	r2,-4(fp)
  8039e8:	1885383a 	mul	r2,r3,r2
  8039ec:	1085883a 	add	r2,r2,r2
  8039f0:	1007883a 	mov	r3,r2
  8039f4:	e0bfff17 	ldw	r2,-4(fp)
  8039f8:	1885c83a 	sub	r2,r3,r2
  8039fc:	2885883a 	add	r2,r5,r2
  803a00:	20800215 	stw	r2,8(r4)
  803a04:	e0bffd03 	ldbu	r2,-12(fp)
  803a08:	10800044 	addi	r2,r2,1
  803a0c:	e0bffd05 	stb	r2,-12(fp)
  803a10:	e0bffd07 	ldb	r2,-12(fp)
  803a14:	10800210 	cmplti	r2,r2,8
  803a18:	103fb61e 	bne	r2,zero,8038f4 <resize_cube+0x1c>
  }
  return 0;
  803a1c:	0005883a 	mov	r2,zero
}
  803a20:	e037883a 	mov	sp,fp
  803a24:	df000017 	ldw	fp,0(sp)
  803a28:	dec00104 	addi	sp,sp,4
  803a2c:	f800283a 	ret

00803a30 <run_rotate>:

// Run the cube rotation algorithm
void run_rotate( display_frame_buffer_struct* vga_frame_buffer )
{
  803a30:	defeb804 	addi	sp,sp,-1312
  803a34:	dfc14715 	stw	ra,1308(sp)
  803a38:	df014615 	stw	fp,1304(sp)
  803a3c:	df014604 	addi	fp,sp,1304
  803a40:	e13ff915 	stw	r4,-28(fp)
  alt_8 i, j;
  int x, y, z;
  short rotx = 0, roty = 0, rotz = 0;
  803a44:	e03ec30d 	sth	zero,-1268(fp)
  803a48:	e03ec28d 	sth	zero,-1270(fp)
  803a4c:	e03ec20d 	sth	zero,-1272(fp)

  point_3d_struct base_cube[8];
  point_3d_struct cube[3][8];
  point_3d_struct axis_unit[3];
  point_3d_struct base_axis_unit_vector;
  
  int ticks_now, msec_passed;
  int last_ticks = 0;
  803a50:	e03ebf15 	stw	zero,-1284(fp)
  int frames = 0;
  803a54:	e03ebe15 	stw	zero,-1288(fp)

  char frame_count_text[500];
  
  // Start things off
  alt_8 cube_to_draw = 0;
  803a58:	e03ebd45 	stb	zero,-1291(fp)
  alt_8 cube_to_erase = 1;
  803a5c:	00800044 	movi	r2,1
  803a60:	e0bebd05 	stb	r2,-1292(fp)
    
  // Define unit vectors for each axis x,y,z.
  axis_unit[0].x = 1024;
  803a64:	00810004 	movi	r2,1024
  803a68:	e0bf6815 	stw	r2,-608(fp)
  axis_unit[0].y = 0;
  803a6c:	e03f6915 	stw	zero,-604(fp)
  axis_unit[0].z = 0;
  803a70:	e03f6a15 	stw	zero,-600(fp)
  
  axis_unit[1].x = 0;
  803a74:	e03f6d15 	stw	zero,-588(fp)
  axis_unit[1].y = 1024;
  803a78:	00810004 	movi	r2,1024
  803a7c:	e0bf6e15 	stw	r2,-584(fp)
  axis_unit[1].z = 0;
  803a80:	e03f6f15 	stw	zero,-580(fp)
  
  axis_unit[2].x = 0;
  803a84:	e03f7215 	stw	zero,-568(fp)
  axis_unit[2].y = 0;
  803a88:	e03f7315 	stw	zero,-564(fp)
  axis_unit[2].z = 1024;
  803a8c:	00810004 	movi	r2,1024
  803a90:	e0bf7415 	stw	r2,-560(fp)
  
  base_axis_unit_vector.x = 1024;
  803a94:	00810004 	movi	r2,1024
  803a98:	e0bf7715 	stw	r2,-548(fp)
  base_axis_unit_vector.y = 0;
  803a9c:	e03f7815 	stw	zero,-544(fp)
  base_axis_unit_vector.z = 0;
  803aa0:	e03f7915 	stw	zero,-540(fp)
  
  // Define the 8 points of a cube
  printf(" - Creating Cube.\n");
  803aa4:	01002074 	movhi	r4,129
  803aa8:	2130d804 	addi	r4,r4,-15520
  803aac:	08049f00 	call	8049f0 <puts>
  for(i = 0; i < 8; i++ )
  803ab0:	e03ec745 	stb	zero,-1251(fp)
  803ab4:	00005206 	br	803c00 <run_rotate+0x1d0>
  {
    x = (((i >> 0) & 0x1) * 2 * SIDE_LENGTH) + (-SIDE_LENGTH);
  803ab8:	e0bec743 	ldbu	r2,-1251(fp)
  803abc:	10803fcc 	andi	r2,r2,255
  803ac0:	1080004c 	andi	r2,r2,1
  803ac4:	10801e24 	muli	r2,r2,120
  803ac8:	10bff104 	addi	r2,r2,-60
  803acc:	e0bec615 	stw	r2,-1256(fp)
    y = (((i >> 1) & 0x1) * 2 * SIDE_LENGTH) + (-SIDE_LENGTH);
  803ad0:	e0bec747 	ldb	r2,-1251(fp)
  803ad4:	1005d07a 	srai	r2,r2,1
  803ad8:	10803fcc 	andi	r2,r2,255
  803adc:	1080004c 	andi	r2,r2,1
  803ae0:	10801e24 	muli	r2,r2,120
  803ae4:	10bff104 	addi	r2,r2,-60
  803ae8:	e0bec515 	stw	r2,-1260(fp)
    z = (((i >> 2) & 0x1) * 2 * SIDE_LENGTH) + (-SIDE_LENGTH);
  803aec:	e0bec747 	ldb	r2,-1251(fp)
  803af0:	1005d0ba 	srai	r2,r2,2
  803af4:	10803fcc 	andi	r2,r2,255
  803af8:	1080004c 	andi	r2,r2,1
  803afc:	10801e24 	muli	r2,r2,120
  803b00:	10bff104 	addi	r2,r2,-60
  803b04:	e0bec415 	stw	r2,-1264(fp)
    base_cube[i].x = x;     
  803b08:	e0bec747 	ldb	r2,-1251(fp)
  803b0c:	10800524 	muli	r2,r2,20
  803b10:	e0febd04 	addi	r3,fp,-1292
  803b14:	10c5883a 	add	r2,r2,r3
  803b18:	10c00b04 	addi	r3,r2,44
  803b1c:	e0bec617 	ldw	r2,-1256(fp)
  803b20:	18800015 	stw	r2,0(r3)
    base_cube[i].y = y;    
  803b24:	e0bec747 	ldb	r2,-1251(fp)
  803b28:	10800524 	muli	r2,r2,20
  803b2c:	e0febd04 	addi	r3,fp,-1292
  803b30:	10c5883a 	add	r2,r2,r3
  803b34:	10c00c04 	addi	r3,r2,48
  803b38:	e0bec517 	ldw	r2,-1260(fp)
  803b3c:	18800015 	stw	r2,0(r3)
    base_cube[i].z = z;
  803b40:	e0bec747 	ldb	r2,-1251(fp)
  803b44:	10800524 	muli	r2,r2,20
  803b48:	e0febd04 	addi	r3,fp,-1292
  803b4c:	10c5883a 	add	r2,r2,r3
  803b50:	10c00d04 	addi	r3,r2,52
  803b54:	e0bec417 	ldw	r2,-1264(fp)
  803b58:	18800015 	stw	r2,0(r3)
    for ( j = 0; j < 3; j++ )
  803b5c:	e03ec705 	stb	zero,-1252(fp)
  803b60:	00002106 	br	803be8 <run_rotate+0x1b8>
    {
      cube[j][i].x = x;
  803b64:	e13ec707 	ldb	r4,-1252(fp)
  803b68:	e0bec747 	ldb	r2,-1251(fp)
  803b6c:	10c00524 	muli	r3,r2,20
  803b70:	20802824 	muli	r2,r4,160
  803b74:	1885883a 	add	r2,r3,r2
  803b78:	e0febd04 	addi	r3,fp,-1292
  803b7c:	10c5883a 	add	r2,r2,r3
  803b80:	10c03304 	addi	r3,r2,204
  803b84:	e0bec617 	ldw	r2,-1256(fp)
  803b88:	18800015 	stw	r2,0(r3)
      cube[j][i].y = y;
  803b8c:	e13ec707 	ldb	r4,-1252(fp)
  803b90:	e0bec747 	ldb	r2,-1251(fp)
  803b94:	10c00524 	muli	r3,r2,20
  803b98:	20802824 	muli	r2,r4,160
  803b9c:	1885883a 	add	r2,r3,r2
  803ba0:	e0febd04 	addi	r3,fp,-1292
  803ba4:	10c5883a 	add	r2,r2,r3
  803ba8:	10c03404 	addi	r3,r2,208
  803bac:	e0bec517 	ldw	r2,-1260(fp)
  803bb0:	18800015 	stw	r2,0(r3)
      cube[j][i].z = z;
  803bb4:	e13ec707 	ldb	r4,-1252(fp)
  803bb8:	e0bec747 	ldb	r2,-1251(fp)
  803bbc:	10c00524 	muli	r3,r2,20
  803bc0:	20802824 	muli	r2,r4,160
  803bc4:	1885883a 	add	r2,r3,r2
  803bc8:	e0febd04 	addi	r3,fp,-1292
  803bcc:	10c5883a 	add	r2,r2,r3
  803bd0:	10c03504 	addi	r3,r2,212
  803bd4:	e0bec417 	ldw	r2,-1264(fp)
  803bd8:	18800015 	stw	r2,0(r3)
  803bdc:	e0bec703 	ldbu	r2,-1252(fp)
  803be0:	10800044 	addi	r2,r2,1
  803be4:	e0bec705 	stb	r2,-1252(fp)
  803be8:	e0bec707 	ldb	r2,-1252(fp)
  803bec:	108000d0 	cmplti	r2,r2,3
  803bf0:	103fdc1e 	bne	r2,zero,803b64 <run_rotate+0x134>
  803bf4:	e0bec743 	ldbu	r2,-1251(fp)
  803bf8:	10800044 	addi	r2,r2,1
  803bfc:	e0bec745 	stb	r2,-1251(fp)
  803c00:	e0bec747 	ldb	r2,-1251(fp)
  803c04:	10800210 	cmplti	r2,r2,8
  803c08:	103fab1e 	bne	r2,zero,803ab8 <run_rotate+0x88>
    }
  }

  // Display Title at top of screen for both frame buffers
  for( i = 0; i < 2; i++ )
  803c0c:	e03ec745 	stb	zero,-1251(fp)
  803c10:	00001b06 	br	803c80 <run_rotate+0x250>
  {
    vid_print_string( TITLE_X, TITLE_Y, WHITE_16, cour10_font, vga_frame_buffer, "Nios II VGA Controller Reference Design" );
  803c14:	00802074 	movhi	r2,129
  803c18:	10ba3904 	addi	r2,r2,-5916
  803c1c:	11c00017 	ldw	r7,0(r2)
  803c20:	e0bff917 	ldw	r2,-28(fp)
  803c24:	d8800015 	stw	r2,0(sp)
  803c28:	00802074 	movhi	r2,129
  803c2c:	10b0dd04 	addi	r2,r2,-15500
  803c30:	d8800115 	stw	r2,4(sp)
  803c34:	01003c04 	movi	r4,240
  803c38:	01401904 	movi	r5,100
  803c3c:	01bff7d4 	movui	r6,65503
  803c40:	08009180 	call	800918 <vid_print_string>
    vid_draw_box( TITLE_X - 15, TITLE_Y - 10, TITLE_X + 330, TITLE_Y + 20, BLUE_16, DO_NOT_FILL, vga_frame_buffer);
  803c44:	008007c4 	movi	r2,31
  803c48:	d8800015 	stw	r2,0(sp)
  803c4c:	d8000115 	stw	zero,4(sp)
  803c50:	e0bff917 	ldw	r2,-28(fp)
  803c54:	d8800215 	stw	r2,8(sp)
  803c58:	01003844 	movi	r4,225
  803c5c:	01401684 	movi	r5,90
  803c60:	01808e84 	movi	r6,570
  803c64:	01c01e04 	movi	r7,120
  803c68:	0800a2c0 	call	800a2c <vid_draw_box>

    // Flip the frame buffers.
    vga_flip_frame_buffers( vga_frame_buffer );
  803c6c:	e13ff917 	ldw	r4,-28(fp)
  803c70:	0807d080 	call	807d08 <vga_flip_frame_buffers>
  803c74:	e0bec743 	ldbu	r2,-1251(fp)
  803c78:	10800044 	addi	r2,r2,1
  803c7c:	e0bec745 	stb	r2,-1251(fp)
  803c80:	e0bec747 	ldb	r2,-1251(fp)
  803c84:	10800090 	cmplti	r2,r2,2
  803c88:	103fe21e 	bne	r2,zero,803c14 <run_rotate+0x1e4>
  }
  

  printf(" - Starting Cube Rotation.\n");
  803c8c:	01002074 	movhi	r4,129
  803c90:	2130e704 	addi	r4,r4,-15460
  803c94:	08049f00 	call	8049f0 <puts>
    while(1)
  {
    // Erase the last cube that was drawn in this buffer
    draw_filled_cube( cube[cube_to_erase], BLACK_16, vga_frame_buffer );
  803c98:	e0bebd07 	ldb	r2,-1292(fp)
  803c9c:	10802824 	muli	r2,r2,160
  803ca0:	1007883a 	mov	r3,r2
  803ca4:	e0bef004 	addi	r2,fp,-1088
  803ca8:	10c5883a 	add	r2,r2,r3
  803cac:	1009883a 	mov	r4,r2
  803cb0:	000b883a 	mov	r5,zero
  803cb4:	e1bff917 	ldw	r6,-28(fp)
  803cb8:	08030300 	call	803030 <draw_filled_cube>
 */

static ALT_INLINE alt_u32 ALT_ALWAYS_INLINE alt_nticks (void)
{
  return _alt_nticks;
  803cbc:	00802074 	movhi	r2,129
  803cc0:	1083a104 	addi	r2,r2,3716
  803cc4:	10800017 	ldw	r2,0(r2)

    // Keep track of time for calculating rotational speed
    ticks_now = alt_nticks();
  803cc8:	e0bec115 	stw	r2,-1276(fp)
    msec_passed = ( 1024 * (ticks_now - last_ticks)) / (alt_ticks_per_second());
  803ccc:	e0fec117 	ldw	r3,-1276(fp)
  803cd0:	e0bebf17 	ldw	r2,-1284(fp)
  803cd4:	1885c83a 	sub	r2,r3,r2
  803cd8:	100492ba 	slli	r2,r2,10
  803cdc:	1009883a 	mov	r4,r2
 */

static ALT_INLINE alt_u32 ALT_ALWAYS_INLINE alt_ticks_per_second (void)
{
  return _alt_tick_rate;
  803ce0:	00802074 	movhi	r2,129
  803ce4:	1083a004 	addi	r2,r2,3712
  803ce8:	10800017 	ldw	r2,0(r2)
  803cec:	100b883a 	mov	r5,r2
  803cf0:	08041000 	call	804100 <__udivsi3>
  803cf4:	e0bec015 	stw	r2,-1280(fp)
    last_ticks = ticks_now; 
  803cf8:	e0bec117 	ldw	r2,-1276(fp)
  803cfc:	e0bebf15 	stw	r2,-1284(fp)
    
    // Move the axis of rotation at a constant rate
    rotx = (rotx + ((73 * msec_passed) / 1024)) % 360;
  803d00:	e0bec30f 	ldh	r2,-1268(fp)
  803d04:	e0bffc15 	stw	r2,-16(fp)
  803d08:	e0bec017 	ldw	r2,-1280(fp)
  803d0c:	10801264 	muli	r2,r2,73
  803d10:	e0bffd15 	stw	r2,-12(fp)
  803d14:	e0fffd17 	ldw	r3,-12(fp)
  803d18:	1804403a 	cmpge	r2,r3,zero
  803d1c:	1000031e 	bne	r2,zero,803d2c <run_rotate+0x2fc>
  803d20:	e0bffd17 	ldw	r2,-12(fp)
  803d24:	1080ffc4 	addi	r2,r2,1023
  803d28:	e0bffd15 	stw	r2,-12(fp)
  803d2c:	e0fffd17 	ldw	r3,-12(fp)
  803d30:	1805d2ba 	srai	r2,r3,10
  803d34:	e0fffc17 	ldw	r3,-16(fp)
  803d38:	1889883a 	add	r4,r3,r2
  803d3c:	01405a04 	movi	r5,360
  803d40:	08040a00 	call	8040a0 <__modsi3>
  803d44:	e0bec30d 	sth	r2,-1268(fp)
    roty = (roty + ((123 * msec_passed) / 1024)) % 360;
  803d48:	e0bec28f 	ldh	r2,-1270(fp)
  803d4c:	e0bffb15 	stw	r2,-20(fp)
  803d50:	e0bec017 	ldw	r2,-1280(fp)
  803d54:	10801ee4 	muli	r2,r2,123
  803d58:	e0bffe15 	stw	r2,-8(fp)
  803d5c:	e0fffe17 	ldw	r3,-8(fp)
  803d60:	1804403a 	cmpge	r2,r3,zero
  803d64:	1000031e 	bne	r2,zero,803d74 <run_rotate+0x344>
  803d68:	e0bffe17 	ldw	r2,-8(fp)
  803d6c:	1080ffc4 	addi	r2,r2,1023
  803d70:	e0bffe15 	stw	r2,-8(fp)
  803d74:	e0fffe17 	ldw	r3,-8(fp)
  803d78:	1805d2ba 	srai	r2,r3,10
  803d7c:	e0fffb17 	ldw	r3,-20(fp)
  803d80:	1889883a 	add	r4,r3,r2
  803d84:	01405a04 	movi	r5,360
  803d88:	08040a00 	call	8040a0 <__modsi3>
  803d8c:	e0bec28d 	sth	r2,-1270(fp)
    rotz = (rotz + ((91 * msec_passed) / 1024)) % 360;
  803d90:	e0bec20f 	ldh	r2,-1272(fp)
  803d94:	e0bffa15 	stw	r2,-24(fp)
  803d98:	e0bec017 	ldw	r2,-1280(fp)
  803d9c:	108016e4 	muli	r2,r2,91
  803da0:	e0bfff15 	stw	r2,-4(fp)
  803da4:	e0ffff17 	ldw	r3,-4(fp)
  803da8:	1804403a 	cmpge	r2,r3,zero
  803dac:	1000031e 	bne	r2,zero,803dbc <run_rotate+0x38c>
  803db0:	e0bfff17 	ldw	r2,-4(fp)
  803db4:	1080ffc4 	addi	r2,r2,1023
  803db8:	e0bfff15 	stw	r2,-4(fp)
  803dbc:	e0ffff17 	ldw	r3,-4(fp)
  803dc0:	1805d2ba 	srai	r2,r3,10
  803dc4:	e0fffa17 	ldw	r3,-24(fp)
  803dc8:	1889883a 	add	r4,r3,r2
  803dcc:	01405a04 	movi	r5,360
  803dd0:	08040a00 	call	8040a0 <__modsi3>
  803dd4:	e0bec20d 	sth	r2,-1272(fp)
    
    // Rotate a new cube
    rotate_cube_points( base_cube, cube[cube_to_draw], axis_unit, rotx, roty, rotz );
  803dd8:	e0bebd47 	ldb	r2,-1291(fp)
  803ddc:	10802824 	muli	r2,r2,160
  803de0:	1007883a 	mov	r3,r2
  803de4:	e0bef004 	addi	r2,fp,-1088
  803de8:	10c5883a 	add	r2,r2,r3
  803dec:	100b883a 	mov	r5,r2
  803df0:	e1fec30f 	ldh	r7,-1268(fp)
  803df4:	e0bec28f 	ldh	r2,-1270(fp)
  803df8:	e0fec20f 	ldh	r3,-1272(fp)
  803dfc:	e13ec804 	addi	r4,fp,-1248
  803e00:	e1bf6804 	addi	r6,fp,-608
  803e04:	d8800015 	stw	r2,0(sp)
  803e08:	d8c00115 	stw	r3,4(sp)
  803e0c:	0802f880 	call	802f88 <rotate_cube_points>
      
    // And draw it
    draw_filled_cube( cube[cube_to_draw], WHITE_24, vga_frame_buffer );
  803e10:	e0bebd47 	ldb	r2,-1291(fp)
  803e14:	10802824 	muli	r2,r2,160
  803e18:	1007883a 	mov	r3,r2
  803e1c:	e0bef004 	addi	r2,fp,-1088
  803e20:	10c5883a 	add	r2,r2,r3
  803e24:	1009883a 	mov	r4,r2
  803e28:	01404034 	movhi	r5,256
  803e2c:	297fffc4 	addi	r5,r5,-1
  803e30:	e1bff917 	ldw	r6,-28(fp)
  803e34:	08030300 	call	803030 <draw_filled_cube>
      
   frames++;
  803e38:	e0bebe17 	ldw	r2,-1288(fp)
  803e3c:	10800044 	addi	r2,r2,1
  803e40:	e0bebe15 	stw	r2,-1288(fp)

    // Flip the double buffers.
    vga_flip_frame_buffers( vga_frame_buffer );
  803e44:	e13ff917 	ldw	r4,-28(fp)
  803e48:	0807d080 	call	807d08 <vga_flip_frame_buffers>

    // keep track of our old cubes so we can erase them when we get 
    // back around to that frame
    cube_to_draw = (( cube_to_draw + 1 ) % 3 );
  803e4c:	e0bebd47 	ldb	r2,-1291(fp)
  803e50:	11000044 	addi	r4,r2,1
  803e54:	014000c4 	movi	r5,3
  803e58:	08040a00 	call	8040a0 <__modsi3>
  803e5c:	e0bebd45 	stb	r2,-1291(fp)
    cube_to_erase = (( cube_to_erase + 1 ) % 3 );
  803e60:	e0bebd07 	ldb	r2,-1292(fp)
  803e64:	11000044 	addi	r4,r2,1
  803e68:	014000c4 	movi	r5,3
  803e6c:	08040a00 	call	8040a0 <__modsi3>
  803e70:	e0bebd05 	stb	r2,-1292(fp)
    
    // Wait until frame being displayed is done so we dont write to it
    // at the same time.
    while( IORD_32DIRECT( vga_frame_buffer->vga_controller_base, 0xC ) != 
  803e74:	e0bff917 	ldw	r2,-28(fp)
  803e78:	10800817 	ldw	r2,32(r2)
  803e7c:	10800304 	addi	r2,r2,12
  803e80:	10c00037 	ldwio	r3,0(r2)
  803e84:	e0bff917 	ldw	r2,-28(fp)
  803e88:	10800017 	ldw	r2,0(r2)
  803e8c:	18bff91e 	bne	r3,r2,803e74 <run_rotate+0x444>
                         (int)vga_frame_buffer->frame0 );
  }
  803e90:	003f8106 	br	803c98 <run_rotate+0x268>

00803e94 <project>:
}

// Project a 3D point onto 2D space
void project(point_3d_struct* point, int dist, display_frame_buffer_struct* vga_fb) {
  803e94:	defffa04 	addi	sp,sp,-24
  803e98:	dfc00515 	stw	ra,20(sp)
  803e9c:	df000415 	stw	fp,16(sp)
  803ea0:	dc000315 	stw	r16,12(sp)
  803ea4:	df000304 	addi	fp,sp,12
  803ea8:	e13ffd15 	stw	r4,-12(fp)
  803eac:	e17ffe15 	stw	r5,-8(fp)
  803eb0:	e1bfff15 	stw	r6,-4(fp)

  // Prevent a divide by zero
  if(point->z == 0)
  803eb4:	e0bffd17 	ldw	r2,-12(fp)
  803eb8:	10800217 	ldw	r2,8(r2)
  803ebc:	1004c03a 	cmpne	r2,r2,zero
  803ec0:	1000161e 	bne	r2,zero,803f1c <project+0x88>
  { 
    // Project the point  
    point->screen_x = point->x + (vga_fb->width / 2);
  803ec4:	e0bffd17 	ldw	r2,-12(fp)
  803ec8:	11000017 	ldw	r4,0(r2)
  803ecc:	e0bfff17 	ldw	r2,-4(fp)
  803ed0:	10c00217 	ldw	r3,8(r2)
  803ed4:	1804d7fa 	srli	r2,r3,31
  803ed8:	10c5883a 	add	r2,r2,r3
  803edc:	1005d07a 	srai	r2,r2,1
  803ee0:	2087883a 	add	r3,r4,r2
  803ee4:	e0bffd17 	ldw	r2,-12(fp)
  803ee8:	10c00315 	stw	r3,12(r2)
    point->screen_y = -point->y + (vga_fb->height / 2);
  803eec:	e0bfff17 	ldw	r2,-4(fp)
  803ef0:	10c00317 	ldw	r3,12(r2)
  803ef4:	1804d7fa 	srli	r2,r3,31
  803ef8:	10c5883a 	add	r2,r2,r3
  803efc:	1005d07a 	srai	r2,r2,1
  803f00:	1007883a 	mov	r3,r2
  803f04:	e0bffd17 	ldw	r2,-12(fp)
  803f08:	10800117 	ldw	r2,4(r2)
  803f0c:	1887c83a 	sub	r3,r3,r2
  803f10:	e0bffd17 	ldw	r2,-12(fp)
  803f14:	10c00415 	stw	r3,16(r2)
  803f18:	00002406 	br	803fac <project+0x118>
  }
  else
  {
    // Project the point  
    point->screen_x = ((point->x * dist) / (point->z + dist)) + (vga_fb->width / 2);
  803f1c:	e0bffd17 	ldw	r2,-12(fp)
  803f20:	10c00017 	ldw	r3,0(r2)
  803f24:	e0bffe17 	ldw	r2,-8(fp)
  803f28:	1889383a 	mul	r4,r3,r2
  803f2c:	e0bffd17 	ldw	r2,-12(fp)
  803f30:	10c00217 	ldw	r3,8(r2)
  803f34:	e0bffe17 	ldw	r2,-8(fp)
  803f38:	188b883a 	add	r5,r3,r2
  803f3c:	08040400 	call	804040 <__divsi3>
  803f40:	1009883a 	mov	r4,r2
  803f44:	e0bfff17 	ldw	r2,-4(fp)
  803f48:	10c00217 	ldw	r3,8(r2)
  803f4c:	1804d7fa 	srli	r2,r3,31
  803f50:	10c5883a 	add	r2,r2,r3
  803f54:	1005d07a 	srai	r2,r2,1
  803f58:	2087883a 	add	r3,r4,r2
  803f5c:	e0bffd17 	ldw	r2,-12(fp)
  803f60:	10c00315 	stw	r3,12(r2)
    point->screen_y = -((point->y * dist) / (point->z + dist)) + (vga_fb->height / 2);
  803f64:	e0bfff17 	ldw	r2,-4(fp)
  803f68:	10c00317 	ldw	r3,12(r2)
  803f6c:	1804d7fa 	srli	r2,r3,31
  803f70:	10c5883a 	add	r2,r2,r3
  803f74:	1005d07a 	srai	r2,r2,1
  803f78:	1021883a 	mov	r16,r2
  803f7c:	e0bffd17 	ldw	r2,-12(fp)
  803f80:	10c00117 	ldw	r3,4(r2)
  803f84:	e0bffe17 	ldw	r2,-8(fp)
  803f88:	1889383a 	mul	r4,r3,r2
  803f8c:	e0bffd17 	ldw	r2,-12(fp)
  803f90:	10c00217 	ldw	r3,8(r2)
  803f94:	e0bffe17 	ldw	r2,-8(fp)
  803f98:	188b883a 	add	r5,r3,r2
  803f9c:	08040400 	call	804040 <__divsi3>
  803fa0:	8087c83a 	sub	r3,r16,r2
  803fa4:	e0bffd17 	ldw	r2,-12(fp)
  803fa8:	10c00415 	stw	r3,16(r2)
  }
}
  803fac:	e037883a 	mov	sp,fp
  803fb0:	dfc00217 	ldw	ra,8(sp)
  803fb4:	df000117 	ldw	fp,4(sp)
  803fb8:	dc000017 	ldw	r16,0(sp)
  803fbc:	dec00304 	addi	sp,sp,12
  803fc0:	f800283a 	ret

00803fc4 <udivmodsi4>:
  803fc4:	29001b2e 	bgeu	r5,r4,804034 <udivmodsi4+0x70>
  803fc8:	28001a16 	blt	r5,zero,804034 <udivmodsi4+0x70>
  803fcc:	00800044 	movi	r2,1
  803fd0:	0007883a 	mov	r3,zero
  803fd4:	01c007c4 	movi	r7,31
  803fd8:	00000306 	br	803fe8 <udivmodsi4+0x24>
  803fdc:	19c01326 	beq	r3,r7,80402c <udivmodsi4+0x68>
  803fe0:	18c00044 	addi	r3,r3,1
  803fe4:	28000416 	blt	r5,zero,803ff8 <udivmodsi4+0x34>
  803fe8:	294b883a 	add	r5,r5,r5
  803fec:	1085883a 	add	r2,r2,r2
  803ff0:	293ffa36 	bltu	r5,r4,803fdc <udivmodsi4+0x18>
  803ff4:	10000d26 	beq	r2,zero,80402c <udivmodsi4+0x68>
  803ff8:	0007883a 	mov	r3,zero
  803ffc:	21400236 	bltu	r4,r5,804008 <udivmodsi4+0x44>
  804000:	2149c83a 	sub	r4,r4,r5
  804004:	1886b03a 	or	r3,r3,r2
  804008:	1004d07a 	srli	r2,r2,1
  80400c:	280ad07a 	srli	r5,r5,1
  804010:	103ffa1e 	bne	r2,zero,803ffc <udivmodsi4+0x38>
  804014:	30000226 	beq	r6,zero,804020 <udivmodsi4+0x5c>
  804018:	2005883a 	mov	r2,r4
  80401c:	f800283a 	ret
  804020:	1809883a 	mov	r4,r3
  804024:	2005883a 	mov	r2,r4
  804028:	f800283a 	ret
  80402c:	0007883a 	mov	r3,zero
  804030:	003ff806 	br	804014 <udivmodsi4+0x50>
  804034:	00800044 	movi	r2,1
  804038:	0007883a 	mov	r3,zero
  80403c:	003fef06 	br	803ffc <udivmodsi4+0x38>

00804040 <__divsi3>:
  804040:	defffe04 	addi	sp,sp,-8
  804044:	dc000015 	stw	r16,0(sp)
  804048:	dfc00115 	stw	ra,4(sp)
  80404c:	0021883a 	mov	r16,zero
  804050:	20000c16 	blt	r4,zero,804084 <__divsi3+0x44>
  804054:	000d883a 	mov	r6,zero
  804058:	28000e16 	blt	r5,zero,804094 <__divsi3+0x54>
  80405c:	0803fc40 	call	803fc4 <udivmodsi4>
  804060:	1007883a 	mov	r3,r2
  804064:	8005003a 	cmpeq	r2,r16,zero
  804068:	1000011e 	bne	r2,zero,804070 <__divsi3+0x30>
  80406c:	00c7c83a 	sub	r3,zero,r3
  804070:	1805883a 	mov	r2,r3
  804074:	dfc00117 	ldw	ra,4(sp)
  804078:	dc000017 	ldw	r16,0(sp)
  80407c:	dec00204 	addi	sp,sp,8
  804080:	f800283a 	ret
  804084:	0109c83a 	sub	r4,zero,r4
  804088:	04000044 	movi	r16,1
  80408c:	000d883a 	mov	r6,zero
  804090:	283ff20e 	bge	r5,zero,80405c <__divsi3+0x1c>
  804094:	014bc83a 	sub	r5,zero,r5
  804098:	8021003a 	cmpeq	r16,r16,zero
  80409c:	003fef06 	br	80405c <__divsi3+0x1c>

008040a0 <__modsi3>:
  8040a0:	deffff04 	addi	sp,sp,-4
  8040a4:	dfc00015 	stw	ra,0(sp)
  8040a8:	01800044 	movi	r6,1
  8040ac:	2807883a 	mov	r3,r5
  8040b0:	20000416 	blt	r4,zero,8040c4 <__modsi3+0x24>
  8040b4:	28000c16 	blt	r5,zero,8040e8 <__modsi3+0x48>
  8040b8:	dfc00017 	ldw	ra,0(sp)
  8040bc:	dec00104 	addi	sp,sp,4
  8040c0:	0803fc41 	jmpi	803fc4 <udivmodsi4>
  8040c4:	0109c83a 	sub	r4,zero,r4
  8040c8:	28000b16 	blt	r5,zero,8040f8 <__modsi3+0x58>
  8040cc:	180b883a 	mov	r5,r3
  8040d0:	01800044 	movi	r6,1
  8040d4:	0803fc40 	call	803fc4 <udivmodsi4>
  8040d8:	0085c83a 	sub	r2,zero,r2
  8040dc:	dfc00017 	ldw	ra,0(sp)
  8040e0:	dec00104 	addi	sp,sp,4
  8040e4:	f800283a 	ret
  8040e8:	014bc83a 	sub	r5,zero,r5
  8040ec:	dfc00017 	ldw	ra,0(sp)
  8040f0:	dec00104 	addi	sp,sp,4
  8040f4:	0803fc41 	jmpi	803fc4 <udivmodsi4>
  8040f8:	0147c83a 	sub	r3,zero,r5
  8040fc:	003ff306 	br	8040cc <__modsi3+0x2c>

00804100 <__udivsi3>:
  804100:	000d883a 	mov	r6,zero
  804104:	0803fc41 	jmpi	803fc4 <udivmodsi4>

00804108 <__umodsi3>:
  804108:	01800044 	movi	r6,1
  80410c:	0803fc41 	jmpi	803fc4 <udivmodsi4>

00804110 <exit>:
  804110:	defffe04 	addi	sp,sp,-8
  804114:	000b883a 	mov	r5,zero
  804118:	dc000015 	stw	r16,0(sp)
  80411c:	dfc00115 	stw	ra,4(sp)
  804120:	2021883a 	mov	r16,r4
  804124:	0804b780 	call	804b78 <__call_exitprocs>
  804128:	00802074 	movhi	r2,129
  80412c:	10ba3b04 	addi	r2,r2,-5908
  804130:	11000017 	ldw	r4,0(r2)
  804134:	20800f17 	ldw	r2,60(r4)
  804138:	10000126 	beq	r2,zero,804140 <exit+0x30>
  80413c:	103ee83a 	callr	r2
  804140:	8009883a 	mov	r4,r16
  804144:	0806ed40 	call	806ed4 <_exit>

00804148 <free>:
  804148:	00802074 	movhi	r2,129
  80414c:	10ba3a04 	addi	r2,r2,-5912
  804150:	200b883a 	mov	r5,r4
  804154:	11000017 	ldw	r4,0(r2)
  804158:	0804e4c1 	jmpi	804e4c <_free_r>

0080415c <malloc>:
  80415c:	00802074 	movhi	r2,129
  804160:	10ba3a04 	addi	r2,r2,-5912
  804164:	200b883a 	mov	r5,r4
  804168:	11000017 	ldw	r4,0(r2)
  80416c:	08041701 	jmpi	804170 <_malloc_r>

00804170 <_malloc_r>:
  804170:	defff604 	addi	sp,sp,-40
  804174:	28c002c4 	addi	r3,r5,11
  804178:	00800584 	movi	r2,22
  80417c:	dc800215 	stw	r18,8(sp)
  804180:	dfc00915 	stw	ra,36(sp)
  804184:	df000815 	stw	fp,32(sp)
  804188:	ddc00715 	stw	r23,28(sp)
  80418c:	dd800615 	stw	r22,24(sp)
  804190:	dd400515 	stw	r21,20(sp)
  804194:	dd000415 	stw	r20,16(sp)
  804198:	dcc00315 	stw	r19,12(sp)
  80419c:	dc400115 	stw	r17,4(sp)
  8041a0:	dc000015 	stw	r16,0(sp)
  8041a4:	2025883a 	mov	r18,r4
  8041a8:	10c01236 	bltu	r2,r3,8041f4 <_malloc_r+0x84>
  8041ac:	04400404 	movi	r17,16
  8041b0:	8940142e 	bgeu	r17,r5,804204 <_malloc_r+0x94>
  8041b4:	00800304 	movi	r2,12
  8041b8:	0007883a 	mov	r3,zero
  8041bc:	90800015 	stw	r2,0(r18)
  8041c0:	1805883a 	mov	r2,r3
  8041c4:	dfc00917 	ldw	ra,36(sp)
  8041c8:	df000817 	ldw	fp,32(sp)
  8041cc:	ddc00717 	ldw	r23,28(sp)
  8041d0:	dd800617 	ldw	r22,24(sp)
  8041d4:	dd400517 	ldw	r21,20(sp)
  8041d8:	dd000417 	ldw	r20,16(sp)
  8041dc:	dcc00317 	ldw	r19,12(sp)
  8041e0:	dc800217 	ldw	r18,8(sp)
  8041e4:	dc400117 	ldw	r17,4(sp)
  8041e8:	dc000017 	ldw	r16,0(sp)
  8041ec:	dec00a04 	addi	sp,sp,40
  8041f0:	f800283a 	ret
  8041f4:	00bffe04 	movi	r2,-8
  8041f8:	18a2703a 	and	r17,r3,r2
  8041fc:	883fed16 	blt	r17,zero,8041b4 <_malloc_r+0x44>
  804200:	897fec36 	bltu	r17,r5,8041b4 <_malloc_r+0x44>
  804204:	9009883a 	mov	r4,r18
  804208:	08073f00 	call	8073f0 <__malloc_lock>
  80420c:	00807dc4 	movi	r2,503
  804210:	14402b2e 	bgeu	r2,r17,8042c0 <_malloc_r+0x150>
  804214:	8806d27a 	srli	r3,r17,9
  804218:	18003f1e 	bne	r3,zero,804318 <_malloc_r+0x1a8>
  80421c:	880cd0fa 	srli	r6,r17,3
  804220:	300490fa 	slli	r2,r6,3
  804224:	02c02074 	movhi	r11,129
  804228:	5af47f04 	addi	r11,r11,-11780
  80422c:	12cb883a 	add	r5,r2,r11
  804230:	2c000317 	ldw	r16,12(r5)
  804234:	580f883a 	mov	r7,r11
  804238:	2c00041e 	bne	r5,r16,80424c <_malloc_r+0xdc>
  80423c:	00000a06 	br	804268 <_malloc_r+0xf8>
  804240:	1800860e 	bge	r3,zero,80445c <_malloc_r+0x2ec>
  804244:	84000317 	ldw	r16,12(r16)
  804248:	2c000726 	beq	r5,r16,804268 <_malloc_r+0xf8>
  80424c:	80800117 	ldw	r2,4(r16)
  804250:	00ffff04 	movi	r3,-4
  804254:	10c8703a 	and	r4,r2,r3
  804258:	2447c83a 	sub	r3,r4,r17
  80425c:	008003c4 	movi	r2,15
  804260:	10fff70e 	bge	r2,r3,804240 <_malloc_r+0xd0>
  804264:	31bfffc4 	addi	r6,r6,-1
  804268:	32400044 	addi	r9,r6,1
  80426c:	02802074 	movhi	r10,129
  804270:	52b48104 	addi	r10,r10,-11772
  804274:	54000217 	ldw	r16,8(r10)
  804278:	8280a026 	beq	r16,r10,8044fc <_malloc_r+0x38c>
  80427c:	80800117 	ldw	r2,4(r16)
  804280:	00ffff04 	movi	r3,-4
  804284:	10ca703a 	and	r5,r2,r3
  804288:	2c4dc83a 	sub	r6,r5,r17
  80428c:	008003c4 	movi	r2,15
  804290:	11808316 	blt	r2,r6,8044a0 <_malloc_r+0x330>
  804294:	52800315 	stw	r10,12(r10)
  804298:	52800215 	stw	r10,8(r10)
  80429c:	30002916 	blt	r6,zero,804344 <_malloc_r+0x1d4>
  8042a0:	8147883a 	add	r3,r16,r5
  8042a4:	18800117 	ldw	r2,4(r3)
  8042a8:	9009883a 	mov	r4,r18
  8042ac:	10800054 	ori	r2,r2,1
  8042b0:	18800115 	stw	r2,4(r3)
  8042b4:	08074100 	call	807410 <__malloc_unlock>
  8042b8:	80c00204 	addi	r3,r16,8
  8042bc:	003fc006 	br	8041c0 <_malloc_r+0x50>
  8042c0:	02c02074 	movhi	r11,129
  8042c4:	5af47f04 	addi	r11,r11,-11780
  8042c8:	8ac5883a 	add	r2,r17,r11
  8042cc:	14000317 	ldw	r16,12(r2)
  8042d0:	580f883a 	mov	r7,r11
  8042d4:	8806d0fa 	srli	r3,r17,3
  8042d8:	14006c26 	beq	r2,r16,80448c <_malloc_r+0x31c>
  8042dc:	80c00117 	ldw	r3,4(r16)
  8042e0:	00bfff04 	movi	r2,-4
  8042e4:	81800317 	ldw	r6,12(r16)
  8042e8:	1886703a 	and	r3,r3,r2
  8042ec:	80c7883a 	add	r3,r16,r3
  8042f0:	18800117 	ldw	r2,4(r3)
  8042f4:	81400217 	ldw	r5,8(r16)
  8042f8:	9009883a 	mov	r4,r18
  8042fc:	10800054 	ori	r2,r2,1
  804300:	18800115 	stw	r2,4(r3)
  804304:	31400215 	stw	r5,8(r6)
  804308:	29800315 	stw	r6,12(r5)
  80430c:	08074100 	call	807410 <__malloc_unlock>
  804310:	80c00204 	addi	r3,r16,8
  804314:	003faa06 	br	8041c0 <_malloc_r+0x50>
  804318:	00800104 	movi	r2,4
  80431c:	10c0052e 	bgeu	r2,r3,804334 <_malloc_r+0x1c4>
  804320:	00800504 	movi	r2,20
  804324:	10c07836 	bltu	r2,r3,804508 <_malloc_r+0x398>
  804328:	198016c4 	addi	r6,r3,91
  80432c:	300490fa 	slli	r2,r6,3
  804330:	003fbc06 	br	804224 <_malloc_r+0xb4>
  804334:	8804d1ba 	srli	r2,r17,6
  804338:	11800e04 	addi	r6,r2,56
  80433c:	300490fa 	slli	r2,r6,3
  804340:	003fb806 	br	804224 <_malloc_r+0xb4>
  804344:	00807fc4 	movi	r2,511
  804348:	1140bb36 	bltu	r2,r5,804638 <_malloc_r+0x4c8>
  80434c:	2806d0fa 	srli	r3,r5,3
  804350:	573ffe04 	addi	fp,r10,-8
  804354:	00800044 	movi	r2,1
  804358:	180890fa 	slli	r4,r3,3
  80435c:	1807d0ba 	srai	r3,r3,2
  804360:	e1c00117 	ldw	r7,4(fp)
  804364:	5909883a 	add	r4,r11,r4
  804368:	21400217 	ldw	r5,8(r4)
  80436c:	10c4983a 	sll	r2,r2,r3
  804370:	81000315 	stw	r4,12(r16)
  804374:	81400215 	stw	r5,8(r16)
  804378:	388eb03a 	or	r7,r7,r2
  80437c:	2c000315 	stw	r16,12(r5)
  804380:	24000215 	stw	r16,8(r4)
  804384:	e1c00115 	stw	r7,4(fp)
  804388:	4807883a 	mov	r3,r9
  80438c:	4800cd16 	blt	r9,zero,8046c4 <_malloc_r+0x554>
  804390:	1807d0ba 	srai	r3,r3,2
  804394:	00800044 	movi	r2,1
  804398:	10c8983a 	sll	r4,r2,r3
  80439c:	39004436 	bltu	r7,r4,8044b0 <_malloc_r+0x340>
  8043a0:	21c4703a 	and	r2,r4,r7
  8043a4:	10000a1e 	bne	r2,zero,8043d0 <_malloc_r+0x260>
  8043a8:	2109883a 	add	r4,r4,r4
  8043ac:	00bfff04 	movi	r2,-4
  8043b0:	4884703a 	and	r2,r9,r2
  8043b4:	3906703a 	and	r3,r7,r4
  8043b8:	12400104 	addi	r9,r2,4
  8043bc:	1800041e 	bne	r3,zero,8043d0 <_malloc_r+0x260>
  8043c0:	2109883a 	add	r4,r4,r4
  8043c4:	3904703a 	and	r2,r7,r4
  8043c8:	4a400104 	addi	r9,r9,4
  8043cc:	103ffc26 	beq	r2,zero,8043c0 <_malloc_r+0x250>
  8043d0:	480490fa 	slli	r2,r9,3
  8043d4:	4819883a 	mov	r12,r9
  8043d8:	023fff04 	movi	r8,-4
  8043dc:	589b883a 	add	r13,r11,r2
  8043e0:	6807883a 	mov	r3,r13
  8043e4:	014003c4 	movi	r5,15
  8043e8:	1c000317 	ldw	r16,12(r3)
  8043ec:	1c00041e 	bne	r3,r16,804400 <_malloc_r+0x290>
  8043f0:	0000a706 	br	804690 <_malloc_r+0x520>
  8043f4:	3000ab0e 	bge	r6,zero,8046a4 <_malloc_r+0x534>
  8043f8:	84000317 	ldw	r16,12(r16)
  8043fc:	1c00a426 	beq	r3,r16,804690 <_malloc_r+0x520>
  804400:	80800117 	ldw	r2,4(r16)
  804404:	1204703a 	and	r2,r2,r8
  804408:	144dc83a 	sub	r6,r2,r17
  80440c:	29bff90e 	bge	r5,r6,8043f4 <_malloc_r+0x284>
  804410:	81000317 	ldw	r4,12(r16)
  804414:	80c00217 	ldw	r3,8(r16)
  804418:	89400054 	ori	r5,r17,1
  80441c:	8445883a 	add	r2,r16,r17
  804420:	20c00215 	stw	r3,8(r4)
  804424:	19000315 	stw	r4,12(r3)
  804428:	81400115 	stw	r5,4(r16)
  80442c:	1187883a 	add	r3,r2,r6
  804430:	31000054 	ori	r4,r6,1
  804434:	50800315 	stw	r2,12(r10)
  804438:	50800215 	stw	r2,8(r10)
  80443c:	19800015 	stw	r6,0(r3)
  804440:	11000115 	stw	r4,4(r2)
  804444:	12800215 	stw	r10,8(r2)
  804448:	12800315 	stw	r10,12(r2)
  80444c:	9009883a 	mov	r4,r18
  804450:	08074100 	call	807410 <__malloc_unlock>
  804454:	80c00204 	addi	r3,r16,8
  804458:	003f5906 	br	8041c0 <_malloc_r+0x50>
  80445c:	8109883a 	add	r4,r16,r4
  804460:	20800117 	ldw	r2,4(r4)
  804464:	80c00217 	ldw	r3,8(r16)
  804468:	81400317 	ldw	r5,12(r16)
  80446c:	10800054 	ori	r2,r2,1
  804470:	20800115 	stw	r2,4(r4)
  804474:	28c00215 	stw	r3,8(r5)
  804478:	19400315 	stw	r5,12(r3)
  80447c:	9009883a 	mov	r4,r18
  804480:	08074100 	call	807410 <__malloc_unlock>
  804484:	80c00204 	addi	r3,r16,8
  804488:	003f4d06 	br	8041c0 <_malloc_r+0x50>
  80448c:	80800204 	addi	r2,r16,8
  804490:	14000317 	ldw	r16,12(r2)
  804494:	143f911e 	bne	r2,r16,8042dc <_malloc_r+0x16c>
  804498:	1a400084 	addi	r9,r3,2
  80449c:	003f7306 	br	80426c <_malloc_r+0xfc>
  8044a0:	88c00054 	ori	r3,r17,1
  8044a4:	8445883a 	add	r2,r16,r17
  8044a8:	80c00115 	stw	r3,4(r16)
  8044ac:	003fdf06 	br	80442c <_malloc_r+0x2bc>
  8044b0:	e4000217 	ldw	r16,8(fp)
  8044b4:	00bfff04 	movi	r2,-4
  8044b8:	80c00117 	ldw	r3,4(r16)
  8044bc:	802d883a 	mov	r22,r16
  8044c0:	18aa703a 	and	r21,r3,r2
  8044c4:	ac401636 	bltu	r21,r17,804520 <_malloc_r+0x3b0>
  8044c8:	ac49c83a 	sub	r4,r21,r17
  8044cc:	008003c4 	movi	r2,15
  8044d0:	1100130e 	bge	r2,r4,804520 <_malloc_r+0x3b0>
  8044d4:	88800054 	ori	r2,r17,1
  8044d8:	8447883a 	add	r3,r16,r17
  8044dc:	80800115 	stw	r2,4(r16)
  8044e0:	20800054 	ori	r2,r4,1
  8044e4:	18800115 	stw	r2,4(r3)
  8044e8:	e0c00215 	stw	r3,8(fp)
  8044ec:	9009883a 	mov	r4,r18
  8044f0:	08074100 	call	807410 <__malloc_unlock>
  8044f4:	80c00204 	addi	r3,r16,8
  8044f8:	003f3106 	br	8041c0 <_malloc_r+0x50>
  8044fc:	39c00117 	ldw	r7,4(r7)
  804500:	573ffe04 	addi	fp,r10,-8
  804504:	003fa006 	br	804388 <_malloc_r+0x218>
  804508:	00801504 	movi	r2,84
  80450c:	10c06736 	bltu	r2,r3,8046ac <_malloc_r+0x53c>
  804510:	8804d33a 	srli	r2,r17,12
  804514:	11801b84 	addi	r6,r2,110
  804518:	300490fa 	slli	r2,r6,3
  80451c:	003f4106 	br	804224 <_malloc_r+0xb4>
  804520:	d0a96017 	ldw	r2,-23168(gp)
  804524:	d0e00417 	ldw	r3,-32752(gp)
  804528:	053fffc4 	movi	r20,-1
  80452c:	10800404 	addi	r2,r2,16
  804530:	88a7883a 	add	r19,r17,r2
  804534:	1d000326 	beq	r3,r20,804544 <_malloc_r+0x3d4>
  804538:	98c3ffc4 	addi	r3,r19,4095
  80453c:	00bc0004 	movi	r2,-4096
  804540:	18a6703a 	and	r19,r3,r2
  804544:	9009883a 	mov	r4,r18
  804548:	980b883a 	mov	r5,r19
  80454c:	0804a040 	call	804a04 <_sbrk_r>
  804550:	1009883a 	mov	r4,r2
  804554:	15000426 	beq	r2,r20,804568 <_malloc_r+0x3f8>
  804558:	854b883a 	add	r5,r16,r21
  80455c:	1029883a 	mov	r20,r2
  804560:	11405a2e 	bgeu	r2,r5,8046cc <_malloc_r+0x55c>
  804564:	87000c26 	beq	r16,fp,804598 <_malloc_r+0x428>
  804568:	e4000217 	ldw	r16,8(fp)
  80456c:	80c00117 	ldw	r3,4(r16)
  804570:	00bfff04 	movi	r2,-4
  804574:	1884703a 	and	r2,r3,r2
  804578:	14400336 	bltu	r2,r17,804588 <_malloc_r+0x418>
  80457c:	1449c83a 	sub	r4,r2,r17
  804580:	008003c4 	movi	r2,15
  804584:	113fd316 	blt	r2,r4,8044d4 <_malloc_r+0x364>
  804588:	9009883a 	mov	r4,r18
  80458c:	08074100 	call	807410 <__malloc_unlock>
  804590:	0007883a 	mov	r3,zero
  804594:	003f0a06 	br	8041c0 <_malloc_r+0x50>
  804598:	05c02074 	movhi	r23,129
  80459c:	bdc3a304 	addi	r23,r23,3724
  8045a0:	b8800017 	ldw	r2,0(r23)
  8045a4:	988d883a 	add	r6,r19,r2
  8045a8:	b9800015 	stw	r6,0(r23)
  8045ac:	d0e00417 	ldw	r3,-32752(gp)
  8045b0:	00bfffc4 	movi	r2,-1
  8045b4:	18808e26 	beq	r3,r2,8047f0 <_malloc_r+0x680>
  8045b8:	2145c83a 	sub	r2,r4,r5
  8045bc:	3085883a 	add	r2,r6,r2
  8045c0:	b8800015 	stw	r2,0(r23)
  8045c4:	20c001cc 	andi	r3,r4,7
  8045c8:	18005f1e 	bne	r3,zero,804748 <_malloc_r+0x5d8>
  8045cc:	000b883a 	mov	r5,zero
  8045d0:	a4c5883a 	add	r2,r20,r19
  8045d4:	1083ffcc 	andi	r2,r2,4095
  8045d8:	00c40004 	movi	r3,4096
  8045dc:	1887c83a 	sub	r3,r3,r2
  8045e0:	28e7883a 	add	r19,r5,r3
  8045e4:	9009883a 	mov	r4,r18
  8045e8:	980b883a 	mov	r5,r19
  8045ec:	0804a040 	call	804a04 <_sbrk_r>
  8045f0:	1007883a 	mov	r3,r2
  8045f4:	00bfffc4 	movi	r2,-1
  8045f8:	18807a26 	beq	r3,r2,8047e4 <_malloc_r+0x674>
  8045fc:	1d05c83a 	sub	r2,r3,r20
  804600:	9885883a 	add	r2,r19,r2
  804604:	10c00054 	ori	r3,r2,1
  804608:	b8800017 	ldw	r2,0(r23)
  80460c:	a021883a 	mov	r16,r20
  804610:	a0c00115 	stw	r3,4(r20)
  804614:	9885883a 	add	r2,r19,r2
  804618:	b8800015 	stw	r2,0(r23)
  80461c:	e5000215 	stw	r20,8(fp)
  804620:	b7003626 	beq	r22,fp,8046fc <_malloc_r+0x58c>
  804624:	018003c4 	movi	r6,15
  804628:	35404b36 	bltu	r6,r21,804758 <_malloc_r+0x5e8>
  80462c:	00800044 	movi	r2,1
  804630:	a0800115 	stw	r2,4(r20)
  804634:	003fcd06 	br	80456c <_malloc_r+0x3fc>
  804638:	2808d27a 	srli	r4,r5,9
  80463c:	2000371e 	bne	r4,zero,80471c <_malloc_r+0x5ac>
  804640:	2808d0fa 	srli	r4,r5,3
  804644:	200690fa 	slli	r3,r4,3
  804648:	1ad1883a 	add	r8,r3,r11
  80464c:	41800217 	ldw	r6,8(r8)
  804650:	41805b26 	beq	r8,r6,8047c0 <_malloc_r+0x650>
  804654:	30800117 	ldw	r2,4(r6)
  804658:	00ffff04 	movi	r3,-4
  80465c:	10c4703a 	and	r2,r2,r3
  804660:	2880022e 	bgeu	r5,r2,80466c <_malloc_r+0x4fc>
  804664:	31800217 	ldw	r6,8(r6)
  804668:	41bffa1e 	bne	r8,r6,804654 <_malloc_r+0x4e4>
  80466c:	32000317 	ldw	r8,12(r6)
  804670:	39c00117 	ldw	r7,4(r7)
  804674:	82000315 	stw	r8,12(r16)
  804678:	81800215 	stw	r6,8(r16)
  80467c:	07002074 	movhi	fp,129
  804680:	e7347f04 	addi	fp,fp,-11780
  804684:	34000315 	stw	r16,12(r6)
  804688:	44000215 	stw	r16,8(r8)
  80468c:	003f3e06 	br	804388 <_malloc_r+0x218>
  804690:	63000044 	addi	r12,r12,1
  804694:	608000cc 	andi	r2,r12,3
  804698:	10005d26 	beq	r2,zero,804810 <_malloc_r+0x6a0>
  80469c:	18c00204 	addi	r3,r3,8
  8046a0:	003f5106 	br	8043e8 <_malloc_r+0x278>
  8046a4:	8089883a 	add	r4,r16,r2
  8046a8:	003f6d06 	br	804460 <_malloc_r+0x2f0>
  8046ac:	00805504 	movi	r2,340
  8046b0:	10c02036 	bltu	r2,r3,804734 <_malloc_r+0x5c4>
  8046b4:	8804d3fa 	srli	r2,r17,15
  8046b8:	11801dc4 	addi	r6,r2,119
  8046bc:	300490fa 	slli	r2,r6,3
  8046c0:	003ed806 	br	804224 <_malloc_r+0xb4>
  8046c4:	48c000c4 	addi	r3,r9,3
  8046c8:	003f3106 	br	804390 <_malloc_r+0x220>
  8046cc:	05c02074 	movhi	r23,129
  8046d0:	bdc3a304 	addi	r23,r23,3724
  8046d4:	b8800017 	ldw	r2,0(r23)
  8046d8:	988d883a 	add	r6,r19,r2
  8046dc:	b9800015 	stw	r6,0(r23)
  8046e0:	293fb21e 	bne	r5,r4,8045ac <_malloc_r+0x43c>
  8046e4:	2083ffcc 	andi	r2,r4,4095
  8046e8:	103fb01e 	bne	r2,zero,8045ac <_malloc_r+0x43c>
  8046ec:	e4000217 	ldw	r16,8(fp)
  8046f0:	9d45883a 	add	r2,r19,r21
  8046f4:	10800054 	ori	r2,r2,1
  8046f8:	80800115 	stw	r2,4(r16)
  8046fc:	b8c00017 	ldw	r3,0(r23)
  804700:	d0a96117 	ldw	r2,-23164(gp)
  804704:	10c0012e 	bgeu	r2,r3,80470c <_malloc_r+0x59c>
  804708:	d0e96115 	stw	r3,-23164(gp)
  80470c:	d0a96217 	ldw	r2,-23160(gp)
  804710:	10ff962e 	bgeu	r2,r3,80456c <_malloc_r+0x3fc>
  804714:	d0e96215 	stw	r3,-23160(gp)
  804718:	003f9406 	br	80456c <_malloc_r+0x3fc>
  80471c:	00800104 	movi	r2,4
  804720:	11001e36 	bltu	r2,r4,80479c <_malloc_r+0x62c>
  804724:	2804d1ba 	srli	r2,r5,6
  804728:	11000e04 	addi	r4,r2,56
  80472c:	200690fa 	slli	r3,r4,3
  804730:	003fc506 	br	804648 <_malloc_r+0x4d8>
